(dp1
S'output'
p2
S"<type 'exceptions.ImportError'> No module named lxml"
p3
sS'layer'
p4
S'/Users/lyonwj/Developer/web2py/web2py.app/Contents/Resources/applications/NewzTrader/controllers/default.py'
p5
sS'code'
p6
S'# -*- coding: utf-8 -*-\n# this file is released under public domain and you can use without limitations\n\n#########################################################################\n## This is a samples controller\n## - index is the default action of any application\n## - user is required for authentication and authorization\n## - download is for downloading files uploaded in the db (does streaming)\n## - call exposes all registered services (none by default)\n#########################################################################\nfrom lxml import etree\nimport datetime\nfrom datetime import datetime\nfrom datetime import date\nfrom datetime import timedelta\nfrom dateutil.parser import parse\n\ndef index():\n    """\n    example action using the internationalization operator T and flash\n    rendered by views/default/index.html or views/generic.html\n    """\n    response.flash = "Welcome to web2py!"\n    todaysNews = get_headlines(date.today())\n    return dict(news=todaysNews)\n    \ndef daterange(start_date, end_date):\n    for n in range(int ((end_date - start_date).days)):\n        yield start_date + timedelta(n)\n        \ndef only_alphanum(s):\n    #s = unicode(s, "utf-8")\n    return \' \'.join(c for c in s.split() if c.isalnum())\ndef only_alpha(s):\n    return \' \'.join(c for c in s.split() if c.isalpha())\ndef removeNonAscii(s): return "".join(i for i in s if ord(i)<128)\n\ndef get_headlines(newsDate):\n    \n    \n    year = newsDate.year\n    month = newsDate.month\n    day = newsDate.day\n    path = "http://api.newscred.com/articles?access_key=c4bcc3f7c9bf9ec159f51da0a86ca658&sources=104afa30d811d37a5582a39e1662a311&pagesize=99&from_date=%d-%d-%d&to_date=%d-%d-%d 23:59:59" % (year, month, day, year, month, day)\n    while True:\n        try:\n            root = etree.parse(path)\n            break\n        except etree.XMLSyntaxError:\n            pass\n    myRoot = root.getroot()\n\n    #news[date(year, month, day)]=[]\n    #descs[date(year, month, day)]=[]\n    for element in myRoot.iter("article"):\n        #for item in element.iter("description"):\n         #   desc = item.text\n        for item in element.iter("title"):\n            title = item.text\n        for item in element.iter("created_at"):\n            pubDate = parse(item.text)\n    \n        news[pubDate.date()].append(only_alphanum(removeNonAscii(title)))\n    return news\n    \ndef user():\n    """\n    exposes:\n    http://..../[app]/default/user/login\n    http://..../[app]/default/user/logout\n    http://..../[app]/default/user/register\n    http://..../[app]/default/user/profile\n    http://..../[app]/default/user/retrieve_password\n    http://..../[app]/default/user/change_password\n    use @auth.requires_login()\n        @auth.requires_membership(\'group name\')\n        @auth.requires_permission(\'read\',\'table name\',record_id)\n    to decorate functions that need access control\n    """\n    return dict(form=auth())\n\n\ndef download():\n    """\n    allows downloading of uploaded files\n    http://..../[app]/default/download/[filename]\n    """\n    return response.download(request,db)\n\n\ndef call():\n    """\n    exposes services. for example:\n    http://..../[app]/default/call/jsonrpc\n    decorate with @services.jsonrpc the functions to expose\n    supports xml, json, xmlrpc, jsonrpc, amfrpc, rss, csv\n    """\n    return service()\n\n\n@auth.requires_signature()\ndef data():\n    """\n    http://..../[app]/default/data/tables\n    http://..../[app]/default/data/create/[table]\n    http://..../[app]/default/data/read/[table]/[id]\n    http://..../[app]/default/data/update/[table]/[id]\n    http://..../[app]/default/data/delete/[table]/[id]\n    http://..../[app]/default/data/select/[table]\n    http://..../[app]/default/data/search/[table]\n    but URLs must be signed, i.e. linked with\n      A(\'table\',_href=URL(\'data/tables\',user_signature=True))\n    or with the signed load operator\n      LOAD(\'default\',\'data.load\',args=\'tables\',ajax=True,user_signature=True)\n    """\n    return dict(form=crud())\n\nresponse._vars=response._caller(index)\n'
p7
sS'snapshot'
p8
(dp9
S'exception'
p10
(dp11
S'__hash__'
p12
S"<method-wrapper '__hash__' of exceptions.ImportError object at 0x7d73670>"
p13
sS'__setattr__'
p14
S"<method-wrapper '__setattr__' of exceptions.ImportError object at 0x7d73670>"
p15
sS'__reduce_ex__'
p16
S'<built-in method __reduce_ex__ of exceptions.ImportError object at 0x7d73670>'
p17
sS'__getslice__'
p18
S"<method-wrapper '__getslice__' of exceptions.ImportError object at 0x7d73670>"
p19
sS'__getitem__'
p20
S"<method-wrapper '__getitem__' of exceptions.ImportError object at 0x7d73670>"
p21
sS'__setstate__'
p22
S'<built-in method __setstate__ of exceptions.ImportError object at 0x7d73670>'
p23
sS'__reduce__'
p24
S'<built-in method __reduce__ of exceptions.ImportError object at 0x7d73670>'
p25
sS'__str__'
p26
S"<method-wrapper '__str__' of exceptions.ImportError object at 0x7d73670>"
p27
sS'args'
p28
S"('No module named lxml',)"
p29
sS'__getattribute__'
p30
S"<method-wrapper '__getattribute__' of exceptions.ImportError object at 0x7d73670>"
p31
sS'__class__'
p32
S"<type 'exceptions.ImportError'>"
p33
sS'__delattr__'
p34
S"<method-wrapper '__delattr__' of exceptions.ImportError object at 0x7d73670>"
p35
sS'__repr__'
p36
S"<method-wrapper '__repr__' of exceptions.ImportError object at 0x7d73670>"
p37
sS'__dict__'
p38
S'{}'
p39
sS'__doc__'
p40
S'"Import can\'t find module, or can\'t find name in module."'
p41
sS'__init__'
p42
S"<method-wrapper '__init__' of exceptions.ImportError object at 0x7d73670>"
p43
sS'__new__'
p44
S'<built-in method __new__ of type object at 0x39f9cc0>'
p45
ssS'evalue'
p46
S'No module named lxml'
p47
sS'request'
p48
ccopy_reg
_reconstructor
p49
(cgluon.html
BEAUTIFY
p50
c__builtin__
object
p51
NtRp52
(dp53
S'attributes'
p54
(dp55
sS'components'
p56
(lp57
g49
(cgluon.html
TABLE
p58
g51
NtRp59
(dp60
g54
(dp61
S'level'
p62
I5
ssS'parent'
p63
Nsg56
(lp64
g49
(cgluon.html
TR
p65
g51
NtRp66
(dp67
g54
(dp68
sg63
g59
sg56
(lp69
g49
(cgluon.html
TD
p70
g51
NtRp71
(dp72
g54
(dp73
S'_style'
p74
S'font-weight:bold;vertical-align:top'
p75
ssg63
g66
sg56
(lp76
S'ajax'
p77
asbag49
(g70
g51
NtRp78
(dp79
g54
(dp80
S'_valign'
p81
S'top'
p82
ssg63
g66
sg56
(lp83
S':'
asbag49
(g70
g51
NtRp84
(dp85
g54
(dp86
sg63
g66
sg56
(lp87
g49
(g50
g51
NtRp88
(dp89
g54
(dp90
g62
I5
ssg63
g84
sg56
(lp91
S'False'
p92
asbasbasbag49
(g65
g51
NtRp93
(dp94
g54
(dp95
sg63
g59
sg56
(lp96
g49
(g70
g51
NtRp97
(dp98
g54
(dp99
g74
g75
ssg63
g93
sg56
(lp100
S'application'
p101
asbag49
(g70
g51
NtRp102
(dp103
g54
(dp104
g81
g82
ssg63
g93
sg56
(lp105
S':'
asbag49
(g70
g51
NtRp106
(dp107
g54
(dp108
sg63
g93
sg56
(lp109
g49
(g50
g51
NtRp110
(dp111
g54
(dp112
g62
I5
ssg63
g106
sg56
(lp113
S'NewzTrader'
p114
asbasbasbag49
(g65
g51
NtRp115
(dp116
g54
(dp117
sg63
g59
sg56
(lp118
g49
(g70
g51
NtRp119
(dp120
g54
(dp121
g74
g75
ssg63
g115
sg56
(lp122
g28
asbag49
(g70
g51
NtRp123
(dp124
g54
(dp125
g81
g82
ssg63
g115
sg56
(lp126
S':'
asbag49
(g70
g51
NtRp127
(dp128
g54
(dp129
sg63
g115
sg56
(lp130
g49
(g50
g51
NtRp131
(dp132
g54
(dp133
g62
I5
ssg63
g127
sg56
(lp134
g49
(g58
g51
NtRp135
(dp136
g54
(dp137
g62
I4
ssg63
Nsg56
(lp138
sbasbasbasbag49
(g65
g51
NtRp139
(dp140
g54
(dp141
sg63
g59
sg56
(lp142
g49
(g70
g51
NtRp143
(dp144
g54
(dp145
g74
g75
ssg63
g139
sg56
(lp146
S'body'
p147
asbag49
(g70
g51
NtRp148
(dp149
g54
(dp150
g81
g82
ssg63
g139
sg56
(lp151
S':'
asbag49
(g70
g51
NtRp152
(dp153
g54
(dp154
sg63
g139
sg56
(lp155
g49
(g50
g51
NtRp156
(dp157
g54
(dp158
g62
I5
ssg63
g152
sg56
(lp159
S'<cStringIO.StringO object at 0x7e22b60>'
p160
asbasbasbag49
(g65
g51
NtRp161
(dp162
g54
(dp163
sg63
g59
sg56
(lp164
g49
(g70
g51
NtRp165
(dp166
g54
(dp167
g74
g75
ssg63
g161
sg56
(lp168
S'client'
p169
asbag49
(g70
g51
NtRp170
(dp171
g54
(dp172
g81
g82
ssg63
g161
sg56
(lp173
S':'
asbag49
(g70
g51
NtRp174
(dp175
g54
(dp176
sg63
g161
sg56
(lp177
g49
(g50
g51
NtRp178
(dp179
g54
(dp180
g62
I5
ssg63
g174
sg56
(lp181
S'127.0.0.1'
p182
asbasbasbag49
(g65
g51
NtRp183
(dp184
g54
(dp185
sg63
g59
sg56
(lp186
g49
(g70
g51
NtRp187
(dp188
g54
(dp189
g74
g75
ssg63
g183
sg56
(lp190
S'controller'
p191
asbag49
(g70
g51
NtRp192
(dp193
g54
(dp194
g81
g82
ssg63
g183
sg56
(lp195
S':'
asbag49
(g70
g51
NtRp196
(dp197
g54
(dp198
sg63
g183
sg56
(lp199
g49
(g50
g51
NtRp200
(dp201
g54
(dp202
g62
I5
ssg63
g196
sg56
(lp203
S'default'
p204
asbasbasbag49
(g65
g51
NtRp205
(dp206
g54
(dp207
sg63
g59
sg56
(lp208
g49
(g70
g51
NtRp209
(dp210
g54
(dp211
g74
g75
ssg63
g205
sg56
(lp212
S'cookies'
p213
asbag49
(g70
g51
NtRp214
(dp215
g54
(dp216
g81
g82
ssg63
g205
sg56
(lp217
S':'
asbag49
(g70
g51
NtRp218
(dp219
g54
(dp220
sg63
g205
sg56
(lp221
g49
(g50
g51
NtRp222
(dp223
g54
(dp224
g62
I5
ssg63
g218
sg56
(lp225
g49
(g58
g51
NtRp226
(dp227
g54
(dp228
g62
I4
ssg63
Nsg56
(lp229
g49
(g65
g51
NtRp230
(dp231
g54
(dp232
sg63
g226
sg56
(lp233
g49
(g70
g51
NtRp234
(dp235
g54
(dp236
g74
g75
ssg63
g230
sg56
(lp237
S'session_id_admin'
p238
asbag49
(g70
g51
NtRp239
(dp240
g54
(dp241
g81
g82
ssg63
g230
sg56
(lp242
S':'
asbag49
(g70
g51
NtRp243
(dp244
g54
(dp245
sg63
g230
sg56
(lp246
g49
(g50
g51
NtRp247
(dp248
g54
(dp249
g62
I4
ssg63
g243
sg56
(lp250
g49
(g58
g51
NtRp251
(dp252
g54
(dp253
g62
I3
ssg63
Nsg56
(lp254
g49
(g65
g51
NtRp255
(dp256
g54
(dp257
sg63
g251
sg56
(lp258
g49
(g70
g51
NtRp259
(dp260
g54
(dp261
g74
g75
ssg63
g255
sg56
(lp262
S'comment'
p263
asbag49
(g70
g51
NtRp264
(dp265
g54
(dp266
g81
g82
ssg63
g255
sg56
(lp267
S':'
asbag49
(g70
g51
NtRp268
(dp269
g54
(dp270
sg63
g255
sg56
(lp271
g49
(g50
g51
NtRp272
(dp273
g54
(dp274
g62
I3
ssg63
g268
sg56
(lp275
S''
asbasbasbag49
(g65
g51
NtRp276
(dp277
g54
(dp278
sg63
g251
sg56
(lp279
g49
(g70
g51
NtRp280
(dp281
g54
(dp282
g74
g75
ssg63
g276
sg56
(lp283
S'domain'
p284
asbag49
(g70
g51
NtRp285
(dp286
g54
(dp287
g81
g82
ssg63
g276
sg56
(lp288
S':'
asbag49
(g70
g51
NtRp289
(dp290
g54
(dp291
sg63
g276
sg56
(lp292
g49
(g50
g51
NtRp293
(dp294
g54
(dp295
g62
I3
ssg63
g289
sg56
(lp296
S''
asbasbasbag49
(g65
g51
NtRp297
(dp298
g54
(dp299
sg63
g251
sg56
(lp300
g49
(g70
g51
NtRp301
(dp302
g54
(dp303
g74
g75
ssg63
g297
sg56
(lp304
S'expires'
p305
asbag49
(g70
g51
NtRp306
(dp307
g54
(dp308
g81
g82
ssg63
g297
sg56
(lp309
S':'
asbag49
(g70
g51
NtRp310
(dp311
g54
(dp312
sg63
g297
sg56
(lp313
g49
(g50
g51
NtRp314
(dp315
g54
(dp316
g62
I3
ssg63
g310
sg56
(lp317
S''
asbasbasbag49
(g65
g51
NtRp318
(dp319
g54
(dp320
sg63
g251
sg56
(lp321
g49
(g70
g51
NtRp322
(dp323
g54
(dp324
g74
g75
ssg63
g318
sg56
(lp325
S'max-age'
p326
asbag49
(g70
g51
NtRp327
(dp328
g54
(dp329
g81
g82
ssg63
g318
sg56
(lp330
S':'
asbag49
(g70
g51
NtRp331
(dp332
g54
(dp333
sg63
g318
sg56
(lp334
g49
(g50
g51
NtRp335
(dp336
g54
(dp337
g62
I3
ssg63
g331
sg56
(lp338
S''
asbasbasbag49
(g65
g51
NtRp339
(dp340
g54
(dp341
sg63
g251
sg56
(lp342
g49
(g70
g51
NtRp343
(dp344
g54
(dp345
g74
g75
ssg63
g339
sg56
(lp346
S'path'
p347
asbag49
(g70
g51
NtRp348
(dp349
g54
(dp350
g81
g82
ssg63
g339
sg56
(lp351
S':'
asbag49
(g70
g51
NtRp352
(dp353
g54
(dp354
sg63
g339
sg56
(lp355
g49
(g50
g51
NtRp356
(dp357
g54
(dp358
g62
I3
ssg63
g352
sg56
(lp359
S''
asbasbasbag49
(g65
g51
NtRp360
(dp361
g54
(dp362
sg63
g251
sg56
(lp363
g49
(g70
g51
NtRp364
(dp365
g54
(dp366
g74
g75
ssg63
g360
sg56
(lp367
S'secure'
p368
asbag49
(g70
g51
NtRp369
(dp370
g54
(dp371
g81
g82
ssg63
g360
sg56
(lp372
S':'
asbag49
(g70
g51
NtRp373
(dp374
g54
(dp375
sg63
g360
sg56
(lp376
g49
(g50
g51
NtRp377
(dp378
g54
(dp379
g62
I3
ssg63
g373
sg56
(lp380
S''
asbasbasbag49
(g65
g51
NtRp381
(dp382
g54
(dp383
sg63
g251
sg56
(lp384
g49
(g70
g51
NtRp385
(dp386
g54
(dp387
g74
g75
ssg63
g381
sg56
(lp388
S'version'
p389
asbag49
(g70
g51
NtRp390
(dp391
g54
(dp392
g81
g82
ssg63
g381
sg56
(lp393
S':'
asbag49
(g70
g51
NtRp394
(dp395
g54
(dp396
sg63
g381
sg56
(lp397
g49
(g50
g51
NtRp398
(dp399
g54
(dp400
g62
I3
ssg63
g394
sg56
(lp401
S''
asbasbasbasbasbasbasbag49
(g65
g51
NtRp402
(dp403
g54
(dp404
sg63
g226
sg56
(lp405
g49
(g70
g51
NtRp406
(dp407
g54
(dp408
g74
g75
ssg63
g402
sg56
(lp409
S'session_id_init'
p410
asbag49
(g70
g51
NtRp411
(dp412
g54
(dp413
g81
g82
ssg63
g402
sg56
(lp414
S':'
asbag49
(g70
g51
NtRp415
(dp416
g54
(dp417
sg63
g402
sg56
(lp418
g49
(g50
g51
NtRp419
(dp420
g54
(dp421
g62
I4
ssg63
g415
sg56
(lp422
g49
(g58
g51
NtRp423
(dp424
g54
(dp425
g62
I3
ssg63
Nsg56
(lp426
g49
(g65
g51
NtRp427
(dp428
g54
(dp429
sg63
g423
sg56
(lp430
g49
(g70
g51
NtRp431
(dp432
g54
(dp433
g74
g75
ssg63
g427
sg56
(lp434
g263
asbag49
(g70
g51
NtRp435
(dp436
g54
(dp437
g81
g82
ssg63
g427
sg56
(lp438
S':'
asbag49
(g70
g51
NtRp439
(dp440
g54
(dp441
sg63
g427
sg56
(lp442
g49
(g50
g51
NtRp443
(dp444
g54
(dp445
g62
I3
ssg63
g439
sg56
(lp446
S''
asbasbasbag49
(g65
g51
NtRp447
(dp448
g54
(dp449
sg63
g423
sg56
(lp450
g49
(g70
g51
NtRp451
(dp452
g54
(dp453
g74
g75
ssg63
g447
sg56
(lp454
g284
asbag49
(g70
g51
NtRp455
(dp456
g54
(dp457
g81
g82
ssg63
g447
sg56
(lp458
S':'
asbag49
(g70
g51
NtRp459
(dp460
g54
(dp461
sg63
g447
sg56
(lp462
g49
(g50
g51
NtRp463
(dp464
g54
(dp465
g62
I3
ssg63
g459
sg56
(lp466
S''
asbasbasbag49
(g65
g51
NtRp467
(dp468
g54
(dp469
sg63
g423
sg56
(lp470
g49
(g70
g51
NtRp471
(dp472
g54
(dp473
g74
g75
ssg63
g467
sg56
(lp474
g305
asbag49
(g70
g51
NtRp475
(dp476
g54
(dp477
g81
g82
ssg63
g467
sg56
(lp478
S':'
asbag49
(g70
g51
NtRp479
(dp480
g54
(dp481
sg63
g467
sg56
(lp482
g49
(g50
g51
NtRp483
(dp484
g54
(dp485
g62
I3
ssg63
g479
sg56
(lp486
S''
asbasbasbag49
(g65
g51
NtRp487
(dp488
g54
(dp489
sg63
g423
sg56
(lp490
g49
(g70
g51
NtRp491
(dp492
g54
(dp493
g74
g75
ssg63
g487
sg56
(lp494
g326
asbag49
(g70
g51
NtRp495
(dp496
g54
(dp497
g81
g82
ssg63
g487
sg56
(lp498
S':'
asbag49
(g70
g51
NtRp499
(dp500
g54
(dp501
sg63
g487
sg56
(lp502
g49
(g50
g51
NtRp503
(dp504
g54
(dp505
g62
I3
ssg63
g499
sg56
(lp506
S''
asbasbasbag49
(g65
g51
NtRp507
(dp508
g54
(dp509
sg63
g423
sg56
(lp510
g49
(g70
g51
NtRp511
(dp512
g54
(dp513
g74
g75
ssg63
g507
sg56
(lp514
g347
asbag49
(g70
g51
NtRp515
(dp516
g54
(dp517
g81
g82
ssg63
g507
sg56
(lp518
S':'
asbag49
(g70
g51
NtRp519
(dp520
g54
(dp521
sg63
g507
sg56
(lp522
g49
(g50
g51
NtRp523
(dp524
g54
(dp525
g62
I3
ssg63
g519
sg56
(lp526
S''
asbasbasbag49
(g65
g51
NtRp527
(dp528
g54
(dp529
sg63
g423
sg56
(lp530
g49
(g70
g51
NtRp531
(dp532
g54
(dp533
g74
g75
ssg63
g527
sg56
(lp534
g368
asbag49
(g70
g51
NtRp535
(dp536
g54
(dp537
g81
g82
ssg63
g527
sg56
(lp538
S':'
asbag49
(g70
g51
NtRp539
(dp540
g54
(dp541
sg63
g527
sg56
(lp542
g49
(g50
g51
NtRp543
(dp544
g54
(dp545
g62
I3
ssg63
g539
sg56
(lp546
S''
asbasbasbag49
(g65
g51
NtRp547
(dp548
g54
(dp549
sg63
g423
sg56
(lp550
g49
(g70
g51
NtRp551
(dp552
g54
(dp553
g74
g75
ssg63
g547
sg56
(lp554
g389
asbag49
(g70
g51
NtRp555
(dp556
g54
(dp557
g81
g82
ssg63
g547
sg56
(lp558
S':'
asbag49
(g70
g51
NtRp559
(dp560
g54
(dp561
sg63
g547
sg56
(lp562
g49
(g50
g51
NtRp563
(dp564
g54
(dp565
g62
I3
ssg63
g559
sg56
(lp566
S''
asbasbasbasbasbasbasbag49
(g65
g51
NtRp567
(dp568
g54
(dp569
sg63
g226
sg56
(lp570
g49
(g70
g51
NtRp571
(dp572
g54
(dp573
g74
g75
ssg63
g567
sg56
(lp574
S'session_id_newztrader'
p575
asbag49
(g70
g51
NtRp576
(dp577
g54
(dp578
g81
g82
ssg63
g567
sg56
(lp579
S':'
asbag49
(g70
g51
NtRp580
(dp581
g54
(dp582
sg63
g567
sg56
(lp583
g49
(g50
g51
NtRp584
(dp585
g54
(dp586
g62
I4
ssg63
g580
sg56
(lp587
g49
(g58
g51
NtRp588
(dp589
g54
(dp590
g62
I3
ssg63
Nsg56
(lp591
g49
(g65
g51
NtRp592
(dp593
g54
(dp594
sg63
g588
sg56
(lp595
g49
(g70
g51
NtRp596
(dp597
g54
(dp598
g74
g75
ssg63
g592
sg56
(lp599
g263
asbag49
(g70
g51
NtRp600
(dp601
g54
(dp602
g81
g82
ssg63
g592
sg56
(lp603
S':'
asbag49
(g70
g51
NtRp604
(dp605
g54
(dp606
sg63
g592
sg56
(lp607
g49
(g50
g51
NtRp608
(dp609
g54
(dp610
g62
I3
ssg63
g604
sg56
(lp611
S''
asbasbasbag49
(g65
g51
NtRp612
(dp613
g54
(dp614
sg63
g588
sg56
(lp615
g49
(g70
g51
NtRp616
(dp617
g54
(dp618
g74
g75
ssg63
g612
sg56
(lp619
g284
asbag49
(g70
g51
NtRp620
(dp621
g54
(dp622
g81
g82
ssg63
g612
sg56
(lp623
S':'
asbag49
(g70
g51
NtRp624
(dp625
g54
(dp626
sg63
g612
sg56
(lp627
g49
(g50
g51
NtRp628
(dp629
g54
(dp630
g62
I3
ssg63
g624
sg56
(lp631
S''
asbasbasbag49
(g65
g51
NtRp632
(dp633
g54
(dp634
sg63
g588
sg56
(lp635
g49
(g70
g51
NtRp636
(dp637
g54
(dp638
g74
g75
ssg63
g632
sg56
(lp639
g305
asbag49
(g70
g51
NtRp640
(dp641
g54
(dp642
g81
g82
ssg63
g632
sg56
(lp643
S':'
asbag49
(g70
g51
NtRp644
(dp645
g54
(dp646
sg63
g632
sg56
(lp647
g49
(g50
g51
NtRp648
(dp649
g54
(dp650
g62
I3
ssg63
g644
sg56
(lp651
S''
asbasbasbag49
(g65
g51
NtRp652
(dp653
g54
(dp654
sg63
g588
sg56
(lp655
g49
(g70
g51
NtRp656
(dp657
g54
(dp658
g74
g75
ssg63
g652
sg56
(lp659
g326
asbag49
(g70
g51
NtRp660
(dp661
g54
(dp662
g81
g82
ssg63
g652
sg56
(lp663
S':'
asbag49
(g70
g51
NtRp664
(dp665
g54
(dp666
sg63
g652
sg56
(lp667
g49
(g50
g51
NtRp668
(dp669
g54
(dp670
g62
I3
ssg63
g664
sg56
(lp671
S''
asbasbasbag49
(g65
g51
NtRp672
(dp673
g54
(dp674
sg63
g588
sg56
(lp675
g49
(g70
g51
NtRp676
(dp677
g54
(dp678
g74
g75
ssg63
g672
sg56
(lp679
g347
asbag49
(g70
g51
NtRp680
(dp681
g54
(dp682
g81
g82
ssg63
g672
sg56
(lp683
S':'
asbag49
(g70
g51
NtRp684
(dp685
g54
(dp686
sg63
g672
sg56
(lp687
g49
(g50
g51
NtRp688
(dp689
g54
(dp690
g62
I3
ssg63
g684
sg56
(lp691
S''
asbasbasbag49
(g65
g51
NtRp692
(dp693
g54
(dp694
sg63
g588
sg56
(lp695
g49
(g70
g51
NtRp696
(dp697
g54
(dp698
g74
g75
ssg63
g692
sg56
(lp699
g368
asbag49
(g70
g51
NtRp700
(dp701
g54
(dp702
g81
g82
ssg63
g692
sg56
(lp703
S':'
asbag49
(g70
g51
NtRp704
(dp705
g54
(dp706
sg63
g692
sg56
(lp707
g49
(g50
g51
NtRp708
(dp709
g54
(dp710
g62
I3
ssg63
g704
sg56
(lp711
S''
asbasbasbag49
(g65
g51
NtRp712
(dp713
g54
(dp714
sg63
g588
sg56
(lp715
g49
(g70
g51
NtRp716
(dp717
g54
(dp718
g74
g75
ssg63
g712
sg56
(lp719
g389
asbag49
(g70
g51
NtRp720
(dp721
g54
(dp722
g81
g82
ssg63
g712
sg56
(lp723
S':'
asbag49
(g70
g51
NtRp724
(dp725
g54
(dp726
sg63
g712
sg56
(lp727
g49
(g50
g51
NtRp728
(dp729
g54
(dp730
g62
I3
ssg63
g724
sg56
(lp731
S''
asbasbasbasbasbasbasbag49
(g65
g51
NtRp732
(dp733
g54
(dp734
sg63
g226
sg56
(lp735
g49
(g70
g51
NtRp736
(dp737
g54
(dp738
g74
g75
ssg63
g732
sg56
(lp739
S'session_id_welcome'
p740
asbag49
(g70
g51
NtRp741
(dp742
g54
(dp743
g81
g82
ssg63
g732
sg56
(lp744
S':'
asbag49
(g70
g51
NtRp745
(dp746
g54
(dp747
sg63
g732
sg56
(lp748
g49
(g50
g51
NtRp749
(dp750
g54
(dp751
g62
I4
ssg63
g745
sg56
(lp752
g49
(g58
g51
NtRp753
(dp754
g54
(dp755
g62
I3
ssg63
Nsg56
(lp756
g49
(g65
g51
NtRp757
(dp758
g54
(dp759
sg63
g753
sg56
(lp760
g49
(g70
g51
NtRp761
(dp762
g54
(dp763
g74
g75
ssg63
g757
sg56
(lp764
g263
asbag49
(g70
g51
NtRp765
(dp766
g54
(dp767
g81
g82
ssg63
g757
sg56
(lp768
S':'
asbag49
(g70
g51
NtRp769
(dp770
g54
(dp771
sg63
g757
sg56
(lp772
g49
(g50
g51
NtRp773
(dp774
g54
(dp775
g62
I3
ssg63
g769
sg56
(lp776
S''
asbasbasbag49
(g65
g51
NtRp777
(dp778
g54
(dp779
sg63
g753
sg56
(lp780
g49
(g70
g51
NtRp781
(dp782
g54
(dp783
g74
g75
ssg63
g777
sg56
(lp784
g284
asbag49
(g70
g51
NtRp785
(dp786
g54
(dp787
g81
g82
ssg63
g777
sg56
(lp788
S':'
asbag49
(g70
g51
NtRp789
(dp790
g54
(dp791
sg63
g777
sg56
(lp792
g49
(g50
g51
NtRp793
(dp794
g54
(dp795
g62
I3
ssg63
g789
sg56
(lp796
S''
asbasbasbag49
(g65
g51
NtRp797
(dp798
g54
(dp799
sg63
g753
sg56
(lp800
g49
(g70
g51
NtRp801
(dp802
g54
(dp803
g74
g75
ssg63
g797
sg56
(lp804
g305
asbag49
(g70
g51
NtRp805
(dp806
g54
(dp807
g81
g82
ssg63
g797
sg56
(lp808
S':'
asbag49
(g70
g51
NtRp809
(dp810
g54
(dp811
sg63
g797
sg56
(lp812
g49
(g50
g51
NtRp813
(dp814
g54
(dp815
g62
I3
ssg63
g809
sg56
(lp816
S''
asbasbasbag49
(g65
g51
NtRp817
(dp818
g54
(dp819
sg63
g753
sg56
(lp820
g49
(g70
g51
NtRp821
(dp822
g54
(dp823
g74
g75
ssg63
g817
sg56
(lp824
g326
asbag49
(g70
g51
NtRp825
(dp826
g54
(dp827
g81
g82
ssg63
g817
sg56
(lp828
S':'
asbag49
(g70
g51
NtRp829
(dp830
g54
(dp831
sg63
g817
sg56
(lp832
g49
(g50
g51
NtRp833
(dp834
g54
(dp835
g62
I3
ssg63
g829
sg56
(lp836
S''
asbasbasbag49
(g65
g51
NtRp837
(dp838
g54
(dp839
sg63
g753
sg56
(lp840
g49
(g70
g51
NtRp841
(dp842
g54
(dp843
g74
g75
ssg63
g837
sg56
(lp844
g347
asbag49
(g70
g51
NtRp845
(dp846
g54
(dp847
g81
g82
ssg63
g837
sg56
(lp848
S':'
asbag49
(g70
g51
NtRp849
(dp850
g54
(dp851
sg63
g837
sg56
(lp852
g49
(g50
g51
NtRp853
(dp854
g54
(dp855
g62
I3
ssg63
g849
sg56
(lp856
S''
asbasbasbag49
(g65
g51
NtRp857
(dp858
g54
(dp859
sg63
g753
sg56
(lp860
g49
(g70
g51
NtRp861
(dp862
g54
(dp863
g74
g75
ssg63
g857
sg56
(lp864
g368
asbag49
(g70
g51
NtRp865
(dp866
g54
(dp867
g81
g82
ssg63
g857
sg56
(lp868
S':'
asbag49
(g70
g51
NtRp869
(dp870
g54
(dp871
sg63
g857
sg56
(lp872
g49
(g50
g51
NtRp873
(dp874
g54
(dp875
g62
I3
ssg63
g869
sg56
(lp876
S''
asbasbasbag49
(g65
g51
NtRp877
(dp878
g54
(dp879
sg63
g753
sg56
(lp880
g49
(g70
g51
NtRp881
(dp882
g54
(dp883
g74
g75
ssg63
g877
sg56
(lp884
g389
asbag49
(g70
g51
NtRp885
(dp886
g54
(dp887
g81
g82
ssg63
g877
sg56
(lp888
S':'
asbag49
(g70
g51
NtRp889
(dp890
g54
(dp891
sg63
g877
sg56
(lp892
g49
(g50
g51
NtRp893
(dp894
g54
(dp895
g62
I3
ssg63
g889
sg56
(lp896
S''
asbasbasbasbasbasbasbasbasbasbasbag49
(g65
g51
NtRp897
(dp898
g54
(dp899
sg63
g59
sg56
(lp900
g49
(g70
g51
NtRp901
(dp902
g54
(dp903
g74
g75
ssg63
g897
sg56
(lp904
S'env'
p905
asbag49
(g70
g51
NtRp906
(dp907
g54
(dp908
g81
g82
ssg63
g897
sg56
(lp909
S':'
asbag49
(g70
g51
NtRp910
(dp911
g54
(dp912
sg63
g897
sg56
(lp913
g49
(g50
g51
NtRp914
(dp915
g54
(dp916
g62
I5
ssg63
g910
sg56
(lp917
g49
(g58
g51
NtRp918
(dp919
g54
(dp920
g62
I4
ssg63
Nsg56
(lp921
g49
(g65
g51
NtRp922
(dp923
g54
(dp924
sg63
g918
sg56
(lp925
g49
(g70
g51
NtRp926
(dp927
g54
(dp928
g74
g75
ssg63
g922
sg56
(lp929
S'app_folders'
p930
asbag49
(g70
g51
NtRp931
(dp932
g54
(dp933
g81
g82
ssg63
g922
sg56
(lp934
S':'
asbag49
(g70
g51
NtRp935
(dp936
g54
(dp937
sg63
g922
sg56
(lp938
g49
(g50
g51
NtRp939
(dp940
g54
(dp941
g62
I4
ssg63
g935
sg56
(lp942
S"set(['/Users/lyonwj/Developer/web2py/web2py.app/Contents/Resources/applications/NewzTrader/', '/Users/lyonwj/Developer/web2py/web2py.app/Contents/Resources/applications/init/', '/Users/lyonwj/Developer/web2py/web2py.app/Contents/Resources/applications/admin/'])"
p943
asbasbasbag49
(g65
g51
NtRp944
(dp945
g54
(dp946
sg63
g918
sg56
(lp947
g49
(g70
g51
NtRp948
(dp949
g54
(dp950
g74
g75
ssg63
g944
sg56
(lp951
S'applications_parent'
p952
asbag49
(g70
g51
NtRp953
(dp954
g54
(dp955
g81
g82
ssg63
g944
sg56
(lp956
S':'
asbag49
(g70
g51
NtRp957
(dp958
g54
(dp959
sg63
g944
sg56
(lp960
g49
(g50
g51
NtRp961
(dp962
g54
(dp963
g62
I4
ssg63
g957
sg56
(lp964
S'/Users/lyonwj/Developer/web2py/web2py.app/Contents/Resources'
p965
asbasbasbag49
(g65
g51
NtRp966
(dp967
g54
(dp968
sg63
g918
sg56
(lp969
g49
(g70
g51
NtRp970
(dp971
g54
(dp972
g74
g75
ssg63
g966
sg56
(lp973
S'cmd_args'
p974
asbag49
(g70
g51
NtRp975
(dp976
g54
(dp977
g81
g82
ssg63
g966
sg56
(lp978
S':'
asbag49
(g70
g51
NtRp979
(dp980
g54
(dp981
sg63
g966
sg56
(lp982
g49
(g50
g51
NtRp983
(dp984
g54
(dp985
g62
I4
ssg63
g979
sg56
(lp986
g49
(g58
g51
NtRp987
(dp988
g54
(dp989
g62
I3
ssg63
Nsg56
(lp990
sbasbasbasbag49
(g65
g51
NtRp991
(dp992
g54
(dp993
sg63
g918
sg56
(lp994
g49
(g70
g51
NtRp995
(dp996
g54
(dp997
g74
g75
ssg63
g991
sg56
(lp998
S'cmd_options'
p999
asbag49
(g70
g51
NtRp1000
(dp1001
g54
(dp1002
g81
g82
ssg63
g991
sg56
(lp1003
S':'
asbag49
(g70
g51
NtRp1004
(dp1005
g54
(dp1006
sg63
g991
sg56
(lp1007
g49
(g50
g51
NtRp1008
(dp1009
g54
(dp1010
g62
I4
ssg63
g1004
sg56
(lp1011
S"<Values at 0x7634738: {'verbose': False, 'ip': '127.0.0.1', 'shutdown_timeout': 5, 'taskbar': False, 'nocron': False, 'pid_filename': 'httpserver.pid', 'maxthreads': None, 'softcron': False, 'server_name': 'lyonwjs-MacBook-Pro.local', 'bpython': False, 'nogui': False, 'port': 8000, 'extcron': False, 'debuglevel': 30, 'test': None, 'folder': '/Users/lyonwj/Developer/web2py/web2py.app/Contents/Resources', 'config': '', 'import_models': False, 'winservice': '', 'shell': None, 'run': '', 'log_filename': 'httpserver.log', 'args': [''], 'socket_timeout': 5, 'ssl_ca_certificate': None, 'scheduler': None, 'profiler_filename': None, 'ssl_private_key': '', 'password': '<ask>', 'request_queue_size': 5, 'ssl_certificate': '', 'cronjob': False, 'numthreads': None, 'quiet': False, 'interfaces': None, 'minthreads': None, 'timeout': 10, 'plain': False, 'nobanner': False}>"
p1012
asbasbasbag49
(g65
g51
NtRp1013
(dp1014
g54
(dp1015
sg63
g918
sg56
(lp1016
g49
(g70
g51
NtRp1017
(dp1018
g54
(dp1019
g74
g75
ssg63
g1013
sg56
(lp1020
S'db_sessions'
p1021
asbag49
(g70
g51
NtRp1022
(dp1023
g54
(dp1024
g81
g82
ssg63
g1013
sg56
(lp1025
S':'
asbag49
(g70
g51
NtRp1026
(dp1027
g54
(dp1028
sg63
g1013
sg56
(lp1029
g49
(g50
g51
NtRp1030
(dp1031
g54
(dp1032
g62
I4
ssg63
g1026
sg56
(lp1033
S'set([])'
p1034
asbasbasbag49
(g65
g51
NtRp1035
(dp1036
g54
(dp1037
sg63
g918
sg56
(lp1038
g49
(g70
g51
NtRp1039
(dp1040
g54
(dp1041
g74
g75
ssg63
g1035
sg56
(lp1042
S'debugging'
p1043
asbag49
(g70
g51
NtRp1044
(dp1045
g54
(dp1046
g81
g82
ssg63
g1035
sg56
(lp1047
S':'
asbag49
(g70
g51
NtRp1048
(dp1049
g54
(dp1050
sg63
g1035
sg56
(lp1051
g49
(g50
g51
NtRp1052
(dp1053
g54
(dp1054
g62
I4
ssg63
g1048
sg56
(lp1055
g92
asbasbasbag49
(g65
g51
NtRp1056
(dp1057
g54
(dp1058
sg63
g918
sg56
(lp1059
g49
(g70
g51
NtRp1060
(dp1061
g54
(dp1062
g74
g75
ssg63
g1056
sg56
(lp1063
S'gluon_parent'
p1064
asbag49
(g70
g51
NtRp1065
(dp1066
g54
(dp1067
g81
g82
ssg63
g1056
sg56
(lp1068
S':'
asbag49
(g70
g51
NtRp1069
(dp1070
g54
(dp1071
sg63
g1056
sg56
(lp1072
g49
(g50
g51
NtRp1073
(dp1074
g54
(dp1075
g62
I4
ssg63
g1069
sg56
(lp1076
S'/Users/lyonwj/Developer/web2py/web2py.app/Contents/Resources'
p1077
asbasbasbag49
(g65
g51
NtRp1078
(dp1079
g54
(dp1080
sg63
g918
sg56
(lp1081
g49
(g70
g51
NtRp1082
(dp1083
g54
(dp1084
g74
g75
ssg63
g1078
sg56
(lp1085
S'http_accept'
p1086
asbag49
(g70
g51
NtRp1087
(dp1088
g54
(dp1089
g81
g82
ssg63
g1078
sg56
(lp1090
S':'
asbag49
(g70
g51
NtRp1091
(dp1092
g54
(dp1093
sg63
g1078
sg56
(lp1094
g49
(g50
g51
NtRp1095
(dp1096
g54
(dp1097
g62
I4
ssg63
g1091
sg56
(lp1098
S'text/html,application/xhtml+xml,application/xml;q=0.9,*/*;q=0.8'
p1099
asbasbasbag49
(g65
g51
NtRp1100
(dp1101
g54
(dp1102
sg63
g918
sg56
(lp1103
g49
(g70
g51
NtRp1104
(dp1105
g54
(dp1106
g74
g75
ssg63
g1100
sg56
(lp1107
S'http_accept_charset'
p1108
asbag49
(g70
g51
NtRp1109
(dp1110
g54
(dp1111
g81
g82
ssg63
g1100
sg56
(lp1112
S':'
asbag49
(g70
g51
NtRp1113
(dp1114
g54
(dp1115
sg63
g1100
sg56
(lp1116
g49
(g50
g51
NtRp1117
(dp1118
g54
(dp1119
g62
I4
ssg63
g1113
sg56
(lp1120
S'ISO-8859-1,utf-8;q=0.7,*;q=0.3'
p1121
asbasbasbag49
(g65
g51
NtRp1122
(dp1123
g54
(dp1124
sg63
g918
sg56
(lp1125
g49
(g70
g51
NtRp1126
(dp1127
g54
(dp1128
g74
g75
ssg63
g1122
sg56
(lp1129
S'http_accept_encoding'
p1130
asbag49
(g70
g51
NtRp1131
(dp1132
g54
(dp1133
g81
g82
ssg63
g1122
sg56
(lp1134
S':'
asbag49
(g70
g51
NtRp1135
(dp1136
g54
(dp1137
sg63
g1122
sg56
(lp1138
g49
(g50
g51
NtRp1139
(dp1140
g54
(dp1141
g62
I4
ssg63
g1135
sg56
(lp1142
S'gzip,deflate,sdch'
p1143
asbasbasbag49
(g65
g51
NtRp1144
(dp1145
g54
(dp1146
sg63
g918
sg56
(lp1147
g49
(g70
g51
NtRp1148
(dp1149
g54
(dp1150
g74
g75
ssg63
g1144
sg56
(lp1151
S'http_accept_language'
p1152
asbag49
(g70
g51
NtRp1153
(dp1154
g54
(dp1155
g81
g82
ssg63
g1144
sg56
(lp1156
S':'
asbag49
(g70
g51
NtRp1157
(dp1158
g54
(dp1159
sg63
g1144
sg56
(lp1160
g49
(g50
g51
NtRp1161
(dp1162
g54
(dp1163
g62
I4
ssg63
g1157
sg56
(lp1164
S'en-US,en;q=0.8'
p1165
asbasbasbag49
(g65
g51
NtRp1166
(dp1167
g54
(dp1168
sg63
g918
sg56
(lp1169
g49
(g70
g51
NtRp1170
(dp1171
g54
(dp1172
g74
g75
ssg63
g1166
sg56
(lp1173
S'http_cache_control'
p1174
asbag49
(g70
g51
NtRp1175
(dp1176
g54
(dp1177
g81
g82
ssg63
g1166
sg56
(lp1178
S':'
asbag49
(g70
g51
NtRp1179
(dp1180
g54
(dp1181
sg63
g1166
sg56
(lp1182
g49
(g50
g51
NtRp1183
(dp1184
g54
(dp1185
g62
I4
ssg63
g1179
sg56
(lp1186
S'max-age=0'
p1187
asbasbasbag49
(g65
g51
NtRp1188
(dp1189
g54
(dp1190
sg63
g918
sg56
(lp1191
g49
(g70
g51
NtRp1192
(dp1193
g54
(dp1194
g74
g75
ssg63
g1188
sg56
(lp1195
S'http_connection'
p1196
asbag49
(g70
g51
NtRp1197
(dp1198
g54
(dp1199
g81
g82
ssg63
g1188
sg56
(lp1200
S':'
asbag49
(g70
g51
NtRp1201
(dp1202
g54
(dp1203
sg63
g1188
sg56
(lp1204
g49
(g50
g51
NtRp1205
(dp1206
g54
(dp1207
g62
I4
ssg63
g1201
sg56
(lp1208
S'keep-alive'
p1209
asbasbasbag49
(g65
g51
NtRp1210
(dp1211
g54
(dp1212
sg63
g918
sg56
(lp1213
g49
(g70
g51
NtRp1214
(dp1215
g54
(dp1216
g74
g75
ssg63
g1210
sg56
(lp1217
S'http_cookie'
p1218
asbag49
(g70
g51
NtRp1219
(dp1220
g54
(dp1221
g81
g82
ssg63
g1210
sg56
(lp1222
S':'
asbag49
(g70
g51
NtRp1223
(dp1224
g54
(dp1225
sg63
g1210
sg56
(lp1226
g49
(g50
g51
NtRp1227
(dp1228
g54
(dp1229
g62
I4
ssg63
g1223
sg56
(lp1230
S'session_id_welcome=127.0.0.1-d69b7535-395b-41b6-bec8-c2a257c84169; session_id_init=127.0.0.1-e03e5cb7-a03c-4804-a8c1-c5d2b461fe16; session_id_newztrader=127.0.0.1-dc37d44a-b370-4a05-93c0-3b2861a0fbee; session_id_admin=127.0.0.1-8b3673c4-501b-4358-9dc6-669192476fb8'
p1231
asbasbasbag49
(g65
g51
NtRp1232
(dp1233
g54
(dp1234
sg63
g918
sg56
(lp1235
g49
(g70
g51
NtRp1236
(dp1237
g54
(dp1238
g74
g75
ssg63
g1232
sg56
(lp1239
S'http_host'
p1240
asbag49
(g70
g51
NtRp1241
(dp1242
g54
(dp1243
g81
g82
ssg63
g1232
sg56
(lp1244
S':'
asbag49
(g70
g51
NtRp1245
(dp1246
g54
(dp1247
sg63
g1232
sg56
(lp1248
g49
(g50
g51
NtRp1249
(dp1250
g54
(dp1251
g62
I4
ssg63
g1245
sg56
(lp1252
S'127.0.0.1:8000'
p1253
asbasbasbag49
(g65
g51
NtRp1254
(dp1255
g54
(dp1256
sg63
g918
sg56
(lp1257
g49
(g70
g51
NtRp1258
(dp1259
g54
(dp1260
g74
g75
ssg63
g1254
sg56
(lp1261
S'http_user_agent'
p1262
asbag49
(g70
g51
NtRp1263
(dp1264
g54
(dp1265
g81
g82
ssg63
g1254
sg56
(lp1266
S':'
asbag49
(g70
g51
NtRp1267
(dp1268
g54
(dp1269
sg63
g1254
sg56
(lp1270
g49
(g50
g51
NtRp1271
(dp1272
g54
(dp1273
g62
I4
ssg63
g1267
sg56
(lp1274
S'Mozilla/5.0 (Macintosh; Intel Mac OS X 10_8_2) AppleWebKit/537.4 (KHTML, like Gecko) Chrome/22.0.1229.94 Safari/537.4'
p1275
asbasbasbag49
(g65
g51
NtRp1276
(dp1277
g54
(dp1278
sg63
g918
sg56
(lp1279
g49
(g70
g51
NtRp1280
(dp1281
g54
(dp1282
g74
g75
ssg63
g1276
sg56
(lp1283
S'is_jython'
p1284
asbag49
(g70
g51
NtRp1285
(dp1286
g54
(dp1287
g81
g82
ssg63
g1276
sg56
(lp1288
S':'
asbag49
(g70
g51
NtRp1289
(dp1290
g54
(dp1291
sg63
g1276
sg56
(lp1292
g49
(g50
g51
NtRp1293
(dp1294
g54
(dp1295
g62
I4
ssg63
g1289
sg56
(lp1296
g92
asbasbasbag49
(g65
g51
NtRp1297
(dp1298
g54
(dp1299
sg63
g918
sg56
(lp1300
g49
(g70
g51
NtRp1301
(dp1302
g54
(dp1303
g74
g75
ssg63
g1297
sg56
(lp1304
S'is_pypy'
p1305
asbag49
(g70
g51
NtRp1306
(dp1307
g54
(dp1308
g81
g82
ssg63
g1297
sg56
(lp1309
S':'
asbag49
(g70
g51
NtRp1310
(dp1311
g54
(dp1312
sg63
g1297
sg56
(lp1313
g49
(g50
g51
NtRp1314
(dp1315
g54
(dp1316
g62
I4
ssg63
g1310
sg56
(lp1317
g92
asbasbasbag49
(g65
g51
NtRp1318
(dp1319
g54
(dp1320
sg63
g918
sg56
(lp1321
g49
(g70
g51
NtRp1322
(dp1323
g54
(dp1324
g74
g75
ssg63
g1318
sg56
(lp1325
S'path_info'
p1326
asbag49
(g70
g51
NtRp1327
(dp1328
g54
(dp1329
g81
g82
ssg63
g1318
sg56
(lp1330
S':'
asbag49
(g70
g51
NtRp1331
(dp1332
g54
(dp1333
sg63
g1318
sg56
(lp1334
g49
(g50
g51
NtRp1335
(dp1336
g54
(dp1337
g62
I4
ssg63
g1331
sg56
(lp1338
S'/NewzTrader'
p1339
asbasbasbag49
(g65
g51
NtRp1340
(dp1341
g54
(dp1342
sg63
g918
sg56
(lp1343
g49
(g70
g51
NtRp1344
(dp1345
g54
(dp1346
g74
g75
ssg63
g1340
sg56
(lp1347
S'query_string'
p1348
asbag49
(g70
g51
NtRp1349
(dp1350
g54
(dp1351
g81
g82
ssg63
g1340
sg56
(lp1352
S':'
asbag49
(g70
g51
NtRp1353
(dp1354
g54
(dp1355
sg63
g1340
sg56
(lp1356
g49
(g50
g51
NtRp1357
(dp1358
g54
(dp1359
g62
I4
ssg63
g1353
sg56
(lp1360
S''
asbasbasbag49
(g65
g51
NtRp1361
(dp1362
g54
(dp1363
sg63
g918
sg56
(lp1364
g49
(g70
g51
NtRp1365
(dp1366
g54
(dp1367
g74
g75
ssg63
g1361
sg56
(lp1368
S'remote_addr'
p1369
asbag49
(g70
g51
NtRp1370
(dp1371
g54
(dp1372
g81
g82
ssg63
g1361
sg56
(lp1373
S':'
asbag49
(g70
g51
NtRp1374
(dp1375
g54
(dp1376
sg63
g1361
sg56
(lp1377
g49
(g50
g51
NtRp1378
(dp1379
g54
(dp1380
g62
I4
ssg63
g1374
sg56
(lp1381
g182
asbasbasbag49
(g65
g51
NtRp1382
(dp1383
g54
(dp1384
sg63
g918
sg56
(lp1385
g49
(g70
g51
NtRp1386
(dp1387
g54
(dp1388
g74
g75
ssg63
g1382
sg56
(lp1389
S'remote_port'
p1390
asbag49
(g70
g51
NtRp1391
(dp1392
g54
(dp1393
g81
g82
ssg63
g1382
sg56
(lp1394
S':'
asbag49
(g70
g51
NtRp1395
(dp1396
g54
(dp1397
sg63
g1382
sg56
(lp1398
g49
(g50
g51
NtRp1399
(dp1400
g54
(dp1401
g62
I4
ssg63
g1395
sg56
(lp1402
S'51638'
p1403
asbasbasbag49
(g65
g51
NtRp1404
(dp1405
g54
(dp1406
sg63
g918
sg56
(lp1407
g49
(g70
g51
NtRp1408
(dp1409
g54
(dp1410
g74
g75
ssg63
g1404
sg56
(lp1411
S'request_method'
p1412
asbag49
(g70
g51
NtRp1413
(dp1414
g54
(dp1415
g81
g82
ssg63
g1404
sg56
(lp1416
S':'
asbag49
(g70
g51
NtRp1417
(dp1418
g54
(dp1419
sg63
g1404
sg56
(lp1420
g49
(g50
g51
NtRp1421
(dp1422
g54
(dp1423
g62
I4
ssg63
g1417
sg56
(lp1424
S'GET'
p1425
asbasbasbag49
(g65
g51
NtRp1426
(dp1427
g54
(dp1428
sg63
g918
sg56
(lp1429
g49
(g70
g51
NtRp1430
(dp1431
g54
(dp1432
g74
g75
ssg63
g1426
sg56
(lp1433
S'script_name'
p1434
asbag49
(g70
g51
NtRp1435
(dp1436
g54
(dp1437
g81
g82
ssg63
g1426
sg56
(lp1438
S':'
asbag49
(g70
g51
NtRp1439
(dp1440
g54
(dp1441
sg63
g1426
sg56
(lp1442
g49
(g50
g51
NtRp1443
(dp1444
g54
(dp1445
g62
I4
ssg63
g1439
sg56
(lp1446
S''
asbasbasbag49
(g65
g51
NtRp1447
(dp1448
g54
(dp1449
sg63
g918
sg56
(lp1450
g49
(g70
g51
NtRp1451
(dp1452
g54
(dp1453
g74
g75
ssg63
g1447
sg56
(lp1454
S'server_name'
p1455
asbag49
(g70
g51
NtRp1456
(dp1457
g54
(dp1458
g81
g82
ssg63
g1447
sg56
(lp1459
S':'
asbag49
(g70
g51
NtRp1460
(dp1461
g54
(dp1462
sg63
g1447
sg56
(lp1463
g49
(g50
g51
NtRp1464
(dp1465
g54
(dp1466
g62
I4
ssg63
g1460
sg56
(lp1467
S'lyonwjs-MacBook-Pro.local'
p1468
asbasbasbag49
(g65
g51
NtRp1469
(dp1470
g54
(dp1471
sg63
g918
sg56
(lp1472
g49
(g70
g51
NtRp1473
(dp1474
g54
(dp1475
g74
g75
ssg63
g1469
sg56
(lp1476
S'server_port'
p1477
asbag49
(g70
g51
NtRp1478
(dp1479
g54
(dp1480
g81
g82
ssg63
g1469
sg56
(lp1481
S':'
asbag49
(g70
g51
NtRp1482
(dp1483
g54
(dp1484
sg63
g1469
sg56
(lp1485
g49
(g50
g51
NtRp1486
(dp1487
g54
(dp1488
g62
I4
ssg63
g1482
sg56
(lp1489
S'8000'
p1490
asbasbasbag49
(g65
g51
NtRp1491
(dp1492
g54
(dp1493
sg63
g918
sg56
(lp1494
g49
(g70
g51
NtRp1495
(dp1496
g54
(dp1497
g74
g75
ssg63
g1491
sg56
(lp1498
S'server_protocol'
p1499
asbag49
(g70
g51
NtRp1500
(dp1501
g54
(dp1502
g81
g82
ssg63
g1491
sg56
(lp1503
S':'
asbag49
(g70
g51
NtRp1504
(dp1505
g54
(dp1506
sg63
g1491
sg56
(lp1507
g49
(g50
g51
NtRp1508
(dp1509
g54
(dp1510
g62
I4
ssg63
g1504
sg56
(lp1511
S'HTTP/1.1'
p1512
asbasbasbag49
(g65
g51
NtRp1513
(dp1514
g54
(dp1515
sg63
g918
sg56
(lp1516
g49
(g70
g51
NtRp1517
(dp1518
g54
(dp1519
g74
g75
ssg63
g1513
sg56
(lp1520
S'server_software'
p1521
asbag49
(g70
g51
NtRp1522
(dp1523
g54
(dp1524
g81
g82
ssg63
g1513
sg56
(lp1525
S':'
asbag49
(g70
g51
NtRp1526
(dp1527
g54
(dp1528
sg63
g1513
sg56
(lp1529
g49
(g50
g51
NtRp1530
(dp1531
g54
(dp1532
g62
I4
ssg63
g1526
sg56
(lp1533
S'Rocket 1.2.4'
p1534
asbasbasbag49
(g65
g51
NtRp1535
(dp1536
g54
(dp1537
sg63
g918
sg56
(lp1538
g49
(g70
g51
NtRp1539
(dp1540
g54
(dp1541
g74
g75
ssg63
g1535
sg56
(lp1542
S'web2py_crontype'
p1543
asbag49
(g70
g51
NtRp1544
(dp1545
g54
(dp1546
g81
g82
ssg63
g1535
sg56
(lp1547
S':'
asbag49
(g70
g51
NtRp1548
(dp1549
g54
(dp1550
sg63
g1535
sg56
(lp1551
g49
(g50
g51
NtRp1552
(dp1553
g54
(dp1554
g62
I4
ssg63
g1548
sg56
(lp1555
S'hard'
p1556
asbasbasbag49
(g65
g51
NtRp1557
(dp1558
g54
(dp1559
sg63
g918
sg56
(lp1560
g49
(g70
g51
NtRp1561
(dp1562
g54
(dp1563
g74
g75
ssg63
g1557
sg56
(lp1564
S'web2py_path'
p1565
asbag49
(g70
g51
NtRp1566
(dp1567
g54
(dp1568
g81
g82
ssg63
g1557
sg56
(lp1569
S':'
asbag49
(g70
g51
NtRp1570
(dp1571
g54
(dp1572
sg63
g1557
sg56
(lp1573
g49
(g50
g51
NtRp1574
(dp1575
g54
(dp1576
g62
I4
ssg63
g1570
sg56
(lp1577
g965
asbasbasbag49
(g65
g51
NtRp1578
(dp1579
g54
(dp1580
sg63
g918
sg56
(lp1581
g49
(g70
g51
NtRp1582
(dp1583
g54
(dp1584
g74
g75
ssg63
g1578
sg56
(lp1585
S'web2py_version'
p1586
asbag49
(g70
g51
NtRp1587
(dp1588
g54
(dp1589
g81
g82
ssg63
g1578
sg56
(lp1590
S':'
asbag49
(g70
g51
NtRp1591
(dp1592
g54
(dp1593
sg63
g1578
sg56
(lp1594
g49
(g50
g51
NtRp1595
(dp1596
g54
(dp1597
g62
I4
ssg63
g1591
sg56
(lp1598
g49
(g58
g51
NtRp1599
(dp1600
g54
(dp1601
g62
I3
ssg63
Nsg56
(lp1602
g49
(g65
g51
NtRp1603
(dp1604
g54
(dp1605
sg63
g1599
sg56
(lp1606
g49
(g70
g51
NtRp1607
(dp1608
g54
(dp1609
sg63
g1603
sg56
(lp1610
g49
(g50
g51
NtRp1611
(dp1612
g54
(dp1613
g62
I3
ssg63
g1607
sg56
(lp1614
S'1'
asbasbasbag49
(g65
g51
NtRp1615
(dp1616
g54
(dp1617
sg63
g1599
sg56
(lp1618
g49
(g70
g51
NtRp1619
(dp1620
g54
(dp1621
sg63
g1615
sg56
(lp1622
g49
(g50
g51
NtRp1623
(dp1624
g54
(dp1625
g62
I3
ssg63
g1619
sg56
(lp1626
S'99'
p1627
asbasbasbag49
(g65
g51
NtRp1628
(dp1629
g54
(dp1630
sg63
g1599
sg56
(lp1631
g49
(g70
g51
NtRp1632
(dp1633
g54
(dp1634
sg63
g1628
sg56
(lp1635
g49
(g50
g51
NtRp1636
(dp1637
g54
(dp1638
g62
I3
ssg63
g1632
sg56
(lp1639
S'7'
asbasbasbag49
(g65
g51
NtRp1640
(dp1641
g54
(dp1642
sg63
g1599
sg56
(lp1643
g49
(g70
g51
NtRp1644
(dp1645
g54
(dp1646
sg63
g1640
sg56
(lp1647
g49
(g50
g51
NtRp1648
(dp1649
g54
(dp1650
g62
I3
ssg63
g1644
sg56
(lp1651
S'datetime.datetime(2012, 3, 4, 22, 12, 8)'
p1652
asbasbasbag49
(g65
g51
NtRp1653
(dp1654
g54
(dp1655
sg63
g1599
sg56
(lp1656
g49
(g70
g51
NtRp1657
(dp1658
g54
(dp1659
sg63
g1653
sg56
(lp1660
g49
(g50
g51
NtRp1661
(dp1662
g54
(dp1663
g62
I3
ssg63
g1657
sg56
(lp1664
S'stable'
p1665
asbasbasbasbasbasbasbag49
(g65
g51
NtRp1666
(dp1667
g54
(dp1668
sg63
g918
sg56
(lp1669
g49
(g70
g51
NtRp1670
(dp1671
g54
(dp1672
g74
g75
ssg63
g1666
sg56
(lp1673
S'wsgi_errors'
p1674
asbag49
(g70
g51
NtRp1675
(dp1676
g54
(dp1677
g81
g82
ssg63
g1666
sg56
(lp1678
S':'
asbag49
(g70
g51
NtRp1679
(dp1680
g54
(dp1681
sg63
g1666
sg56
(lp1682
g49
(g50
g51
NtRp1683
(dp1684
g54
(dp1685
g62
I4
ssg63
g1679
sg56
(lp1686
S"<open file '<stderr>', mode 'w' at 0x540b0>"
p1687
asbasbasbag49
(g65
g51
NtRp1688
(dp1689
g54
(dp1690
sg63
g918
sg56
(lp1691
g49
(g70
g51
NtRp1692
(dp1693
g54
(dp1694
g74
g75
ssg63
g1688
sg56
(lp1695
S'wsgi_file_wrapper'
p1696
asbag49
(g70
g51
NtRp1697
(dp1698
g54
(dp1699
g81
g82
ssg63
g1688
sg56
(lp1700
S':'
asbag49
(g70
g51
NtRp1701
(dp1702
g54
(dp1703
sg63
g1688
sg56
(lp1704
g49
(g50
g51
NtRp1705
(dp1706
g54
(dp1707
g62
I4
ssg63
g1701
sg56
(lp1708
S'<class wsgiref.util.FileWrapper at 0x75816c0>'
p1709
asbasbasbag49
(g65
g51
NtRp1710
(dp1711
g54
(dp1712
sg63
g918
sg56
(lp1713
g49
(g70
g51
NtRp1714
(dp1715
g54
(dp1716
g74
g75
ssg63
g1710
sg56
(lp1717
S'wsgi_input'
p1718
asbag49
(g70
g51
NtRp1719
(dp1720
g54
(dp1721
g81
g82
ssg63
g1710
sg56
(lp1722
S':'
asbag49
(g70
g51
NtRp1723
(dp1724
g54
(dp1725
sg63
g1710
sg56
(lp1726
g49
(g50
g51
NtRp1727
(dp1728
g54
(dp1729
g62
I4
ssg63
g1723
sg56
(lp1730
S'<socket._fileobject object at 0x9ef29f0>'
p1731
asbasbasbag49
(g65
g51
NtRp1732
(dp1733
g54
(dp1734
sg63
g918
sg56
(lp1735
g49
(g70
g51
NtRp1736
(dp1737
g54
(dp1738
g74
g75
ssg63
g1732
sg56
(lp1739
S'wsgi_multiprocess'
p1740
asbag49
(g70
g51
NtRp1741
(dp1742
g54
(dp1743
g81
g82
ssg63
g1732
sg56
(lp1744
S':'
asbag49
(g70
g51
NtRp1745
(dp1746
g54
(dp1747
sg63
g1732
sg56
(lp1748
g49
(g50
g51
NtRp1749
(dp1750
g54
(dp1751
g62
I4
ssg63
g1745
sg56
(lp1752
g92
asbasbasbag49
(g65
g51
NtRp1753
(dp1754
g54
(dp1755
sg63
g918
sg56
(lp1756
g49
(g70
g51
NtRp1757
(dp1758
g54
(dp1759
g74
g75
ssg63
g1753
sg56
(lp1760
S'wsgi_multithread'
p1761
asbag49
(g70
g51
NtRp1762
(dp1763
g54
(dp1764
g81
g82
ssg63
g1753
sg56
(lp1765
S':'
asbag49
(g70
g51
NtRp1766
(dp1767
g54
(dp1768
sg63
g1753
sg56
(lp1769
g49
(g50
g51
NtRp1770
(dp1771
g54
(dp1772
g62
I4
ssg63
g1766
sg56
(lp1773
S'True'
p1774
asbasbasbag49
(g65
g51
NtRp1775
(dp1776
g54
(dp1777
sg63
g918
sg56
(lp1778
g49
(g70
g51
NtRp1779
(dp1780
g54
(dp1781
g74
g75
ssg63
g1775
sg56
(lp1782
S'wsgi_run_once'
p1783
asbag49
(g70
g51
NtRp1784
(dp1785
g54
(dp1786
g81
g82
ssg63
g1775
sg56
(lp1787
S':'
asbag49
(g70
g51
NtRp1788
(dp1789
g54
(dp1790
sg63
g1775
sg56
(lp1791
g49
(g50
g51
NtRp1792
(dp1793
g54
(dp1794
g62
I4
ssg63
g1788
sg56
(lp1795
g92
asbasbasbag49
(g65
g51
NtRp1796
(dp1797
g54
(dp1798
sg63
g918
sg56
(lp1799
g49
(g70
g51
NtRp1800
(dp1801
g54
(dp1802
g74
g75
ssg63
g1796
sg56
(lp1803
S'wsgi_url_scheme'
p1804
asbag49
(g70
g51
NtRp1805
(dp1806
g54
(dp1807
g81
g82
ssg63
g1796
sg56
(lp1808
S':'
asbag49
(g70
g51
NtRp1809
(dp1810
g54
(dp1811
sg63
g1796
sg56
(lp1812
g49
(g50
g51
NtRp1813
(dp1814
g54
(dp1815
g62
I4
ssg63
g1809
sg56
(lp1816
S'http'
p1817
asbasbasbag49
(g65
g51
NtRp1818
(dp1819
g54
(dp1820
sg63
g918
sg56
(lp1821
g49
(g70
g51
NtRp1822
(dp1823
g54
(dp1824
g74
g75
ssg63
g1818
sg56
(lp1825
S'wsgi_version'
p1826
asbag49
(g70
g51
NtRp1827
(dp1828
g54
(dp1829
g81
g82
ssg63
g1818
sg56
(lp1830
S':'
asbag49
(g70
g51
NtRp1831
(dp1832
g54
(dp1833
sg63
g1818
sg56
(lp1834
g49
(g50
g51
NtRp1835
(dp1836
g54
(dp1837
g62
I4
ssg63
g1831
sg56
(lp1838
g49
(g58
g51
NtRp1839
(dp1840
g54
(dp1841
g62
I3
ssg63
Nsg56
(lp1842
g49
(g65
g51
NtRp1843
(dp1844
g54
(dp1845
sg63
g1839
sg56
(lp1846
g49
(g70
g51
NtRp1847
(dp1848
g54
(dp1849
sg63
g1843
sg56
(lp1850
g49
(g50
g51
NtRp1851
(dp1852
g54
(dp1853
g62
I3
ssg63
g1847
sg56
(lp1854
S'1'
asbasbasbag49
(g65
g51
NtRp1855
(dp1856
g54
(dp1857
sg63
g1839
sg56
(lp1858
g49
(g70
g51
NtRp1859
(dp1860
g54
(dp1861
sg63
g1855
sg56
(lp1862
g49
(g50
g51
NtRp1863
(dp1864
g54
(dp1865
g62
I3
ssg63
g1859
sg56
(lp1866
S'0'
asbasbasbasbasbasbasbasbasbasbasbag49
(g65
g51
NtRp1867
(dp1868
g54
(dp1869
sg63
g59
sg56
(lp1870
g49
(g70
g51
NtRp1871
(dp1872
g54
(dp1873
g74
g75
ssg63
g1867
sg56
(lp1874
S'extension'
p1875
asbag49
(g70
g51
NtRp1876
(dp1877
g54
(dp1878
g81
g82
ssg63
g1867
sg56
(lp1879
S':'
asbag49
(g70
g51
NtRp1880
(dp1881
g54
(dp1882
sg63
g1867
sg56
(lp1883
g49
(g50
g51
NtRp1884
(dp1885
g54
(dp1886
g62
I5
ssg63
g1880
sg56
(lp1887
S'html'
p1888
asbasbasbag49
(g65
g51
NtRp1889
(dp1890
g54
(dp1891
sg63
g59
sg56
(lp1892
g49
(g70
g51
NtRp1893
(dp1894
g54
(dp1895
g74
g75
ssg63
g1889
sg56
(lp1896
S'folder'
p1897
asbag49
(g70
g51
NtRp1898
(dp1899
g54
(dp1900
g81
g82
ssg63
g1889
sg56
(lp1901
S':'
asbag49
(g70
g51
NtRp1902
(dp1903
g54
(dp1904
sg63
g1889
sg56
(lp1905
g49
(g50
g51
NtRp1906
(dp1907
g54
(dp1908
g62
I5
ssg63
g1902
sg56
(lp1909
S'/Users/lyonwj/Developer/web2py/web2py.app/Contents/Resources/applications/NewzTrader/'
p1910
asbasbasbag49
(g65
g51
NtRp1911
(dp1912
g54
(dp1913
sg63
g59
sg56
(lp1914
g49
(g70
g51
NtRp1915
(dp1916
g54
(dp1917
g74
g75
ssg63
g1911
sg56
(lp1918
S'function'
p1919
asbag49
(g70
g51
NtRp1920
(dp1921
g54
(dp1922
g81
g82
ssg63
g1911
sg56
(lp1923
S':'
asbag49
(g70
g51
NtRp1924
(dp1925
g54
(dp1926
sg63
g1911
sg56
(lp1927
g49
(g50
g51
NtRp1928
(dp1929
g54
(dp1930
g62
I5
ssg63
g1924
sg56
(lp1931
S'index'
p1932
asbasbasbag49
(g65
g51
NtRp1933
(dp1934
g54
(dp1935
sg63
g59
sg56
(lp1936
g49
(g70
g51
NtRp1937
(dp1938
g54
(dp1939
g74
g75
ssg63
g1933
sg56
(lp1940
S'get_vars'
p1941
asbag49
(g70
g51
NtRp1942
(dp1943
g54
(dp1944
g81
g82
ssg63
g1933
sg56
(lp1945
S':'
asbag49
(g70
g51
NtRp1946
(dp1947
g54
(dp1948
sg63
g1933
sg56
(lp1949
g49
(g50
g51
NtRp1950
(dp1951
g54
(dp1952
g62
I5
ssg63
g1946
sg56
(lp1953
g49
(g58
g51
NtRp1954
(dp1955
g54
(dp1956
g62
I4
ssg63
Nsg56
(lp1957
sbasbasbasbag49
(g65
g51
NtRp1958
(dp1959
g54
(dp1960
sg63
g59
sg56
(lp1961
g49
(g70
g51
NtRp1962
(dp1963
g54
(dp1964
g74
g75
ssg63
g1958
sg56
(lp1965
S'global_settings'
p1966
asbag49
(g70
g51
NtRp1967
(dp1968
g54
(dp1969
g81
g82
ssg63
g1958
sg56
(lp1970
S':'
asbag49
(g70
g51
NtRp1971
(dp1972
g54
(dp1973
sg63
g1958
sg56
(lp1974
g49
(g50
g51
NtRp1975
(dp1976
g54
(dp1977
g62
I5
ssg63
g1971
sg56
(lp1978
g49
(g58
g51
NtRp1979
(dp1980
g54
(dp1981
g62
I4
ssg63
Nsg56
(lp1982
g49
(g65
g51
NtRp1983
(dp1984
g54
(dp1985
sg63
g1979
sg56
(lp1986
g49
(g70
g51
NtRp1987
(dp1988
g54
(dp1989
g74
g75
ssg63
g1983
sg56
(lp1990
g930
asbag49
(g70
g51
NtRp1991
(dp1992
g54
(dp1993
g81
g82
ssg63
g1983
sg56
(lp1994
S':'
asbag49
(g70
g51
NtRp1995
(dp1996
g54
(dp1997
sg63
g1983
sg56
(lp1998
g49
(g50
g51
NtRp1999
(dp2000
g54
(dp2001
g62
I4
ssg63
g1995
sg56
(lp2002
S"set(['/Users/lyonwj/Developer/web2py/web2py.app/Contents/Resources/applications/NewzTrader/', '/Users/lyonwj/Developer/web2py/web2py.app/Contents/Resources/applications/init/', '/Users/lyonwj/Developer/web2py/web2py.app/Contents/Resources/applications/admin/'])"
p2003
asbasbasbag49
(g65
g51
NtRp2004
(dp2005
g54
(dp2006
sg63
g1979
sg56
(lp2007
g49
(g70
g51
NtRp2008
(dp2009
g54
(dp2010
g74
g75
ssg63
g2004
sg56
(lp2011
g952
asbag49
(g70
g51
NtRp2012
(dp2013
g54
(dp2014
g81
g82
ssg63
g2004
sg56
(lp2015
S':'
asbag49
(g70
g51
NtRp2016
(dp2017
g54
(dp2018
sg63
g2004
sg56
(lp2019
g49
(g50
g51
NtRp2020
(dp2021
g54
(dp2022
g62
I4
ssg63
g2016
sg56
(lp2023
g965
asbasbasbag49
(g65
g51
NtRp2024
(dp2025
g54
(dp2026
sg63
g1979
sg56
(lp2027
g49
(g70
g51
NtRp2028
(dp2029
g54
(dp2030
g74
g75
ssg63
g2024
sg56
(lp2031
g974
asbag49
(g70
g51
NtRp2032
(dp2033
g54
(dp2034
g81
g82
ssg63
g2024
sg56
(lp2035
S':'
asbag49
(g70
g51
NtRp2036
(dp2037
g54
(dp2038
sg63
g2024
sg56
(lp2039
g49
(g50
g51
NtRp2040
(dp2041
g54
(dp2042
g62
I4
ssg63
g2036
sg56
(lp2043
g49
(g58
g51
NtRp2044
(dp2045
g54
(dp2046
g62
I3
ssg63
Nsg56
(lp2047
sbasbasbasbag49
(g65
g51
NtRp2048
(dp2049
g54
(dp2050
sg63
g1979
sg56
(lp2051
g49
(g70
g51
NtRp2052
(dp2053
g54
(dp2054
g74
g75
ssg63
g2048
sg56
(lp2055
g999
asbag49
(g70
g51
NtRp2056
(dp2057
g54
(dp2058
g81
g82
ssg63
g2048
sg56
(lp2059
S':'
asbag49
(g70
g51
NtRp2060
(dp2061
g54
(dp2062
sg63
g2048
sg56
(lp2063
g49
(g50
g51
NtRp2064
(dp2065
g54
(dp2066
g62
I4
ssg63
g2060
sg56
(lp2067
S"<Values at 0x7634738: {'verbose': False, 'ip': '127.0.0.1', 'shutdown_timeout': 5, 'taskbar': False, 'nocron': False, 'pid_filename': 'httpserver.pid', 'maxthreads': None, 'softcron': False, 'server_name': 'lyonwjs-MacBook-Pro.local', 'bpython': False, 'nogui': False, 'port': 8000, 'extcron': False, 'debuglevel': 30, 'test': None, 'folder': '/Users/lyonwj/Developer/web2py/web2py.app/Contents/Resources', 'config': '', 'import_models': False, 'winservice': '', 'shell': None, 'run': '', 'log_filename': 'httpserver.log', 'args': [''], 'socket_timeout': 5, 'ssl_ca_certificate': None, 'scheduler': None, 'profiler_filename': None, 'ssl_private_key': '', 'password': '<ask>', 'request_queue_size': 5, 'ssl_certificate': '', 'cronjob': False, 'numthreads': None, 'quiet': False, 'interfaces': None, 'minthreads': None, 'timeout': 10, 'plain': False, 'nobanner': False}>"
p2068
asbasbasbag49
(g65
g51
NtRp2069
(dp2070
g54
(dp2071
sg63
g1979
sg56
(lp2072
g49
(g70
g51
NtRp2073
(dp2074
g54
(dp2075
g74
g75
ssg63
g2069
sg56
(lp2076
g1021
asbag49
(g70
g51
NtRp2077
(dp2078
g54
(dp2079
g81
g82
ssg63
g2069
sg56
(lp2080
S':'
asbag49
(g70
g51
NtRp2081
(dp2082
g54
(dp2083
sg63
g2069
sg56
(lp2084
g49
(g50
g51
NtRp2085
(dp2086
g54
(dp2087
g62
I4
ssg63
g2081
sg56
(lp2088
S'set([])'
p2089
asbasbasbag49
(g65
g51
NtRp2090
(dp2091
g54
(dp2092
sg63
g1979
sg56
(lp2093
g49
(g70
g51
NtRp2094
(dp2095
g54
(dp2096
g74
g75
ssg63
g2090
sg56
(lp2097
g1043
asbag49
(g70
g51
NtRp2098
(dp2099
g54
(dp2100
g81
g82
ssg63
g2090
sg56
(lp2101
S':'
asbag49
(g70
g51
NtRp2102
(dp2103
g54
(dp2104
sg63
g2090
sg56
(lp2105
g49
(g50
g51
NtRp2106
(dp2107
g54
(dp2108
g62
I4
ssg63
g2102
sg56
(lp2109
g92
asbasbasbag49
(g65
g51
NtRp2110
(dp2111
g54
(dp2112
sg63
g1979
sg56
(lp2113
g49
(g70
g51
NtRp2114
(dp2115
g54
(dp2116
g74
g75
ssg63
g2110
sg56
(lp2117
g1064
asbag49
(g70
g51
NtRp2118
(dp2119
g54
(dp2120
g81
g82
ssg63
g2110
sg56
(lp2121
S':'
asbag49
(g70
g51
NtRp2122
(dp2123
g54
(dp2124
sg63
g2110
sg56
(lp2125
g49
(g50
g51
NtRp2126
(dp2127
g54
(dp2128
g62
I4
ssg63
g2122
sg56
(lp2129
g1077
asbasbasbag49
(g65
g51
NtRp2130
(dp2131
g54
(dp2132
sg63
g1979
sg56
(lp2133
g49
(g70
g51
NtRp2134
(dp2135
g54
(dp2136
g74
g75
ssg63
g2130
sg56
(lp2137
g1284
asbag49
(g70
g51
NtRp2138
(dp2139
g54
(dp2140
g81
g82
ssg63
g2130
sg56
(lp2141
S':'
asbag49
(g70
g51
NtRp2142
(dp2143
g54
(dp2144
sg63
g2130
sg56
(lp2145
g49
(g50
g51
NtRp2146
(dp2147
g54
(dp2148
g62
I4
ssg63
g2142
sg56
(lp2149
g92
asbasbasbag49
(g65
g51
NtRp2150
(dp2151
g54
(dp2152
sg63
g1979
sg56
(lp2153
g49
(g70
g51
NtRp2154
(dp2155
g54
(dp2156
g74
g75
ssg63
g2150
sg56
(lp2157
g1305
asbag49
(g70
g51
NtRp2158
(dp2159
g54
(dp2160
g81
g82
ssg63
g2150
sg56
(lp2161
S':'
asbag49
(g70
g51
NtRp2162
(dp2163
g54
(dp2164
sg63
g2150
sg56
(lp2165
g49
(g50
g51
NtRp2166
(dp2167
g54
(dp2168
g62
I4
ssg63
g2162
sg56
(lp2169
g92
asbasbasbag49
(g65
g51
NtRp2170
(dp2171
g54
(dp2172
sg63
g1979
sg56
(lp2173
g49
(g70
g51
NtRp2174
(dp2175
g54
(dp2176
g74
g75
ssg63
g2170
sg56
(lp2177
g1543
asbag49
(g70
g51
NtRp2178
(dp2179
g54
(dp2180
g81
g82
ssg63
g2170
sg56
(lp2181
S':'
asbag49
(g70
g51
NtRp2182
(dp2183
g54
(dp2184
sg63
g2170
sg56
(lp2185
g49
(g50
g51
NtRp2186
(dp2187
g54
(dp2188
g62
I4
ssg63
g2182
sg56
(lp2189
g1556
asbasbasbag49
(g65
g51
NtRp2190
(dp2191
g54
(dp2192
sg63
g1979
sg56
(lp2193
g49
(g70
g51
NtRp2194
(dp2195
g54
(dp2196
g74
g75
ssg63
g2190
sg56
(lp2197
g1586
asbag49
(g70
g51
NtRp2198
(dp2199
g54
(dp2200
g81
g82
ssg63
g2190
sg56
(lp2201
S':'
asbag49
(g70
g51
NtRp2202
(dp2203
g54
(dp2204
sg63
g2190
sg56
(lp2205
g49
(g50
g51
NtRp2206
(dp2207
g54
(dp2208
g62
I4
ssg63
g2202
sg56
(lp2209
g49
(g58
g51
NtRp2210
(dp2211
g54
(dp2212
g62
I3
ssg63
Nsg56
(lp2213
g49
(g65
g51
NtRp2214
(dp2215
g54
(dp2216
sg63
g2210
sg56
(lp2217
g49
(g70
g51
NtRp2218
(dp2219
g54
(dp2220
sg63
g2214
sg56
(lp2221
g49
(g50
g51
NtRp2222
(dp2223
g54
(dp2224
g62
I3
ssg63
g2218
sg56
(lp2225
S'1'
asbasbasbag49
(g65
g51
NtRp2226
(dp2227
g54
(dp2228
sg63
g2210
sg56
(lp2229
g49
(g70
g51
NtRp2230
(dp2231
g54
(dp2232
sg63
g2226
sg56
(lp2233
g49
(g50
g51
NtRp2234
(dp2235
g54
(dp2236
g62
I3
ssg63
g2230
sg56
(lp2237
S'99'
p2238
asbasbasbag49
(g65
g51
NtRp2239
(dp2240
g54
(dp2241
sg63
g2210
sg56
(lp2242
g49
(g70
g51
NtRp2243
(dp2244
g54
(dp2245
sg63
g2239
sg56
(lp2246
g49
(g50
g51
NtRp2247
(dp2248
g54
(dp2249
g62
I3
ssg63
g2243
sg56
(lp2250
S'7'
asbasbasbag49
(g65
g51
NtRp2251
(dp2252
g54
(dp2253
sg63
g2210
sg56
(lp2254
g49
(g70
g51
NtRp2255
(dp2256
g54
(dp2257
sg63
g2251
sg56
(lp2258
g49
(g50
g51
NtRp2259
(dp2260
g54
(dp2261
g62
I3
ssg63
g2255
sg56
(lp2262
S'datetime.datetime(2012, 3, 4, 22, 12, 8)'
p2263
asbasbasbag49
(g65
g51
NtRp2264
(dp2265
g54
(dp2266
sg63
g2210
sg56
(lp2267
g49
(g70
g51
NtRp2268
(dp2269
g54
(dp2270
sg63
g2264
sg56
(lp2271
g49
(g50
g51
NtRp2272
(dp2273
g54
(dp2274
g62
I3
ssg63
g2268
sg56
(lp2275
g1665
asbasbasbasbasbasbasbasbasbasbasbag49
(g65
g51
NtRp2276
(dp2277
g54
(dp2278
sg63
g59
sg56
(lp2279
g49
(g70
g51
NtRp2280
(dp2281
g54
(dp2282
g74
g75
ssg63
g2276
sg56
(lp2283
S'is_https'
p2284
asbag49
(g70
g51
NtRp2285
(dp2286
g54
(dp2287
g81
g82
ssg63
g2276
sg56
(lp2288
S':'
asbag49
(g70
g51
NtRp2289
(dp2290
g54
(dp2291
sg63
g2276
sg56
(lp2292
g49
(g50
g51
NtRp2293
(dp2294
g54
(dp2295
g62
I5
ssg63
g2289
sg56
(lp2296
g92
asbasbasbag49
(g65
g51
NtRp2297
(dp2298
g54
(dp2299
sg63
g59
sg56
(lp2300
g49
(g70
g51
NtRp2301
(dp2302
g54
(dp2303
g74
g75
ssg63
g2297
sg56
(lp2304
S'is_local'
p2305
asbag49
(g70
g51
NtRp2306
(dp2307
g54
(dp2308
g81
g82
ssg63
g2297
sg56
(lp2309
S':'
asbag49
(g70
g51
NtRp2310
(dp2311
g54
(dp2312
sg63
g2297
sg56
(lp2313
g49
(g50
g51
NtRp2314
(dp2315
g54
(dp2316
g62
I5
ssg63
g2310
sg56
(lp2317
g1774
asbasbasbag49
(g65
g51
NtRp2318
(dp2319
g54
(dp2320
sg63
g59
sg56
(lp2321
g49
(g70
g51
NtRp2322
(dp2323
g54
(dp2324
g74
g75
ssg63
g2318
sg56
(lp2325
S'is_restful'
p2326
asbag49
(g70
g51
NtRp2327
(dp2328
g54
(dp2329
g81
g82
ssg63
g2318
sg56
(lp2330
S':'
asbag49
(g70
g51
NtRp2331
(dp2332
g54
(dp2333
sg63
g2318
sg56
(lp2334
g49
(g50
g51
NtRp2335
(dp2336
g54
(dp2337
g62
I5
ssg63
g2331
sg56
(lp2338
g92
asbasbasbag49
(g65
g51
NtRp2339
(dp2340
g54
(dp2341
sg63
g59
sg56
(lp2342
g49
(g70
g51
NtRp2343
(dp2344
g54
(dp2345
g74
g75
ssg63
g2339
sg56
(lp2346
S'now'
p2347
asbag49
(g70
g51
NtRp2348
(dp2349
g54
(dp2350
g81
g82
ssg63
g2339
sg56
(lp2351
S':'
asbag49
(g70
g51
NtRp2352
(dp2353
g54
(dp2354
sg63
g2339
sg56
(lp2355
g49
(g50
g51
NtRp2356
(dp2357
g54
(dp2358
g62
I5
ssg63
g2352
sg56
(lp2359
S'datetime.datetime(2012, 11, 15, 12, 34, 7, 718130)'
p2360
asbasbasbag49
(g65
g51
NtRp2361
(dp2362
g54
(dp2363
sg63
g59
sg56
(lp2364
g49
(g70
g51
NtRp2365
(dp2366
g54
(dp2367
g74
g75
ssg63
g2361
sg56
(lp2368
S'post_vars'
p2369
asbag49
(g70
g51
NtRp2370
(dp2371
g54
(dp2372
g81
g82
ssg63
g2361
sg56
(lp2373
S':'
asbag49
(g70
g51
NtRp2374
(dp2375
g54
(dp2376
sg63
g2361
sg56
(lp2377
g49
(g50
g51
NtRp2378
(dp2379
g54
(dp2380
g62
I5
ssg63
g2374
sg56
(lp2381
g49
(g58
g51
NtRp2382
(dp2383
g54
(dp2384
g62
I4
ssg63
Nsg56
(lp2385
sbasbasbasbag49
(g65
g51
NtRp2386
(dp2387
g54
(dp2388
sg63
g59
sg56
(lp2389
g49
(g70
g51
NtRp2390
(dp2391
g54
(dp2392
g74
g75
ssg63
g2386
sg56
(lp2393
S'url'
p2394
asbag49
(g70
g51
NtRp2395
(dp2396
g54
(dp2397
g81
g82
ssg63
g2386
sg56
(lp2398
S':'
asbag49
(g70
g51
NtRp2399
(dp2400
g54
(dp2401
sg63
g2386
sg56
(lp2402
g49
(g50
g51
NtRp2403
(dp2404
g54
(dp2405
g62
I5
ssg63
g2399
sg56
(lp2406
S'/NewzTrader/default/index'
p2407
asbasbasbag49
(g65
g51
NtRp2408
(dp2409
g54
(dp2410
sg63
g59
sg56
(lp2411
g49
(g70
g51
NtRp2412
(dp2413
g54
(dp2414
g74
g75
ssg63
g2408
sg56
(lp2415
S'utcnow'
p2416
asbag49
(g70
g51
NtRp2417
(dp2418
g54
(dp2419
g81
g82
ssg63
g2408
sg56
(lp2420
S':'
asbag49
(g70
g51
NtRp2421
(dp2422
g54
(dp2423
sg63
g2408
sg56
(lp2424
g49
(g50
g51
NtRp2425
(dp2426
g54
(dp2427
g62
I5
ssg63
g2421
sg56
(lp2428
S'datetime.datetime(2012, 11, 15, 19, 34, 7, 718139)'
p2429
asbasbasbag49
(g65
g51
NtRp2430
(dp2431
g54
(dp2432
sg63
g59
sg56
(lp2433
g49
(g70
g51
NtRp2434
(dp2435
g54
(dp2436
g74
g75
ssg63
g2430
sg56
(lp2437
S'uuid'
p2438
asbag49
(g70
g51
NtRp2439
(dp2440
g54
(dp2441
g81
g82
ssg63
g2430
sg56
(lp2442
S':'
asbag49
(g70
g51
NtRp2443
(dp2444
g54
(dp2445
sg63
g2430
sg56
(lp2446
g49
(g50
g51
NtRp2447
(dp2448
g54
(dp2449
g62
I5
ssg63
g2443
sg56
(lp2450
S'NewzTrader/127.0.0.1.2012-11-15.12-34-07.f7e2c1db-de40-4c17-91e6-986d9d49bdb7'
p2451
asbasbasbag49
(g65
g51
NtRp2452
(dp2453
g54
(dp2454
sg63
g59
sg56
(lp2455
g49
(g70
g51
NtRp2456
(dp2457
g54
(dp2458
g74
g75
ssg63
g2452
sg56
(lp2459
S'vars'
p2460
asbag49
(g70
g51
NtRp2461
(dp2462
g54
(dp2463
g81
g82
ssg63
g2452
sg56
(lp2464
S':'
asbag49
(g70
g51
NtRp2465
(dp2466
g54
(dp2467
sg63
g2452
sg56
(lp2468
g49
(g50
g51
NtRp2469
(dp2470
g54
(dp2471
g62
I5
ssg63
g2465
sg56
(lp2472
g49
(g58
g51
NtRp2473
(dp2474
g54
(dp2475
g62
I4
ssg63
Nsg56
(lp2476
sbasbasbasbag49
(g65
g51
NtRp2477
(dp2478
g54
(dp2479
sg63
g59
sg56
(lp2480
g49
(g70
g51
NtRp2481
(dp2482
g54
(dp2483
g74
g75
ssg63
g2477
sg56
(lp2484
S'wsgi'
p2485
asbag49
(g70
g51
NtRp2486
(dp2487
g54
(dp2488
g81
g82
ssg63
g2477
sg56
(lp2489
S':'
asbag49
(g70
g51
NtRp2490
(dp2491
g54
(dp2492
sg63
g2477
sg56
(lp2493
g49
(g50
g51
NtRp2494
(dp2495
g54
(dp2496
g62
I5
ssg63
g2490
sg56
(lp2497
g49
(g58
g51
NtRp2498
(dp2499
g54
(dp2500
g62
I4
ssg63
Nsg56
(lp2501
g49
(g65
g51
NtRp2502
(dp2503
g54
(dp2504
sg63
g2498
sg56
(lp2505
g49
(g70
g51
NtRp2506
(dp2507
g54
(dp2508
g74
g75
ssg63
g2502
sg56
(lp2509
S'environ'
p2510
asbag49
(g70
g51
NtRp2511
(dp2512
g54
(dp2513
g81
g82
ssg63
g2502
sg56
(lp2514
S':'
asbag49
(g70
g51
NtRp2515
(dp2516
g54
(dp2517
sg63
g2502
sg56
(lp2518
g49
(g50
g51
NtRp2519
(dp2520
g54
(dp2521
g62
I4
ssg63
g2515
sg56
(lp2522
g49
(g58
g51
NtRp2523
(dp2524
g54
(dp2525
g62
I3
ssg63
Nsg56
(lp2526
g49
(g65
g51
NtRp2527
(dp2528
g54
(dp2529
sg63
g2523
sg56
(lp2530
g49
(g70
g51
NtRp2531
(dp2532
g54
(dp2533
g74
g75
ssg63
g2527
sg56
(lp2534
S'HTTP_ACCEPT'
p2535
asbag49
(g70
g51
NtRp2536
(dp2537
g54
(dp2538
g81
g82
ssg63
g2527
sg56
(lp2539
S':'
asbag49
(g70
g51
NtRp2540
(dp2541
g54
(dp2542
sg63
g2527
sg56
(lp2543
g49
(g50
g51
NtRp2544
(dp2545
g54
(dp2546
g62
I3
ssg63
g2540
sg56
(lp2547
g1099
asbasbasbag49
(g65
g51
NtRp2548
(dp2549
g54
(dp2550
sg63
g2523
sg56
(lp2551
g49
(g70
g51
NtRp2552
(dp2553
g54
(dp2554
g74
g75
ssg63
g2548
sg56
(lp2555
S'HTTP_ACCEPT_CHARSET'
p2556
asbag49
(g70
g51
NtRp2557
(dp2558
g54
(dp2559
g81
g82
ssg63
g2548
sg56
(lp2560
S':'
asbag49
(g70
g51
NtRp2561
(dp2562
g54
(dp2563
sg63
g2548
sg56
(lp2564
g49
(g50
g51
NtRp2565
(dp2566
g54
(dp2567
g62
I3
ssg63
g2561
sg56
(lp2568
g1121
asbasbasbag49
(g65
g51
NtRp2569
(dp2570
g54
(dp2571
sg63
g2523
sg56
(lp2572
g49
(g70
g51
NtRp2573
(dp2574
g54
(dp2575
g74
g75
ssg63
g2569
sg56
(lp2576
S'HTTP_ACCEPT_ENCODING'
p2577
asbag49
(g70
g51
NtRp2578
(dp2579
g54
(dp2580
g81
g82
ssg63
g2569
sg56
(lp2581
S':'
asbag49
(g70
g51
NtRp2582
(dp2583
g54
(dp2584
sg63
g2569
sg56
(lp2585
g49
(g50
g51
NtRp2586
(dp2587
g54
(dp2588
g62
I3
ssg63
g2582
sg56
(lp2589
g1143
asbasbasbag49
(g65
g51
NtRp2590
(dp2591
g54
(dp2592
sg63
g2523
sg56
(lp2593
g49
(g70
g51
NtRp2594
(dp2595
g54
(dp2596
g74
g75
ssg63
g2590
sg56
(lp2597
S'HTTP_ACCEPT_LANGUAGE'
p2598
asbag49
(g70
g51
NtRp2599
(dp2600
g54
(dp2601
g81
g82
ssg63
g2590
sg56
(lp2602
S':'
asbag49
(g70
g51
NtRp2603
(dp2604
g54
(dp2605
sg63
g2590
sg56
(lp2606
g49
(g50
g51
NtRp2607
(dp2608
g54
(dp2609
g62
I3
ssg63
g2603
sg56
(lp2610
g1165
asbasbasbag49
(g65
g51
NtRp2611
(dp2612
g54
(dp2613
sg63
g2523
sg56
(lp2614
g49
(g70
g51
NtRp2615
(dp2616
g54
(dp2617
g74
g75
ssg63
g2611
sg56
(lp2618
S'HTTP_CACHE_CONTROL'
p2619
asbag49
(g70
g51
NtRp2620
(dp2621
g54
(dp2622
g81
g82
ssg63
g2611
sg56
(lp2623
S':'
asbag49
(g70
g51
NtRp2624
(dp2625
g54
(dp2626
sg63
g2611
sg56
(lp2627
g49
(g50
g51
NtRp2628
(dp2629
g54
(dp2630
g62
I3
ssg63
g2624
sg56
(lp2631
g1187
asbasbasbag49
(g65
g51
NtRp2632
(dp2633
g54
(dp2634
sg63
g2523
sg56
(lp2635
g49
(g70
g51
NtRp2636
(dp2637
g54
(dp2638
g74
g75
ssg63
g2632
sg56
(lp2639
S'HTTP_CONNECTION'
p2640
asbag49
(g70
g51
NtRp2641
(dp2642
g54
(dp2643
g81
g82
ssg63
g2632
sg56
(lp2644
S':'
asbag49
(g70
g51
NtRp2645
(dp2646
g54
(dp2647
sg63
g2632
sg56
(lp2648
g49
(g50
g51
NtRp2649
(dp2650
g54
(dp2651
g62
I3
ssg63
g2645
sg56
(lp2652
g1209
asbasbasbag49
(g65
g51
NtRp2653
(dp2654
g54
(dp2655
sg63
g2523
sg56
(lp2656
g49
(g70
g51
NtRp2657
(dp2658
g54
(dp2659
g74
g75
ssg63
g2653
sg56
(lp2660
S'HTTP_COOKIE'
p2661
asbag49
(g70
g51
NtRp2662
(dp2663
g54
(dp2664
g81
g82
ssg63
g2653
sg56
(lp2665
S':'
asbag49
(g70
g51
NtRp2666
(dp2667
g54
(dp2668
sg63
g2653
sg56
(lp2669
g49
(g50
g51
NtRp2670
(dp2671
g54
(dp2672
g62
I3
ssg63
g2666
sg56
(lp2673
g1231
asbasbasbag49
(g65
g51
NtRp2674
(dp2675
g54
(dp2676
sg63
g2523
sg56
(lp2677
g49
(g70
g51
NtRp2678
(dp2679
g54
(dp2680
g74
g75
ssg63
g2674
sg56
(lp2681
S'HTTP_HOST'
p2682
asbag49
(g70
g51
NtRp2683
(dp2684
g54
(dp2685
g81
g82
ssg63
g2674
sg56
(lp2686
S':'
asbag49
(g70
g51
NtRp2687
(dp2688
g54
(dp2689
sg63
g2674
sg56
(lp2690
g49
(g50
g51
NtRp2691
(dp2692
g54
(dp2693
g62
I3
ssg63
g2687
sg56
(lp2694
g1253
asbasbasbag49
(g65
g51
NtRp2695
(dp2696
g54
(dp2697
sg63
g2523
sg56
(lp2698
g49
(g70
g51
NtRp2699
(dp2700
g54
(dp2701
g74
g75
ssg63
g2695
sg56
(lp2702
S'HTTP_USER_AGENT'
p2703
asbag49
(g70
g51
NtRp2704
(dp2705
g54
(dp2706
g81
g82
ssg63
g2695
sg56
(lp2707
S':'
asbag49
(g70
g51
NtRp2708
(dp2709
g54
(dp2710
sg63
g2695
sg56
(lp2711
g49
(g50
g51
NtRp2712
(dp2713
g54
(dp2714
g62
I3
ssg63
g2708
sg56
(lp2715
g1275
asbasbasbag49
(g65
g51
NtRp2716
(dp2717
g54
(dp2718
sg63
g2523
sg56
(lp2719
g49
(g70
g51
NtRp2720
(dp2721
g54
(dp2722
g74
g75
ssg63
g2716
sg56
(lp2723
S'PATH_INFO'
p2724
asbag49
(g70
g51
NtRp2725
(dp2726
g54
(dp2727
g81
g82
ssg63
g2716
sg56
(lp2728
S':'
asbag49
(g70
g51
NtRp2729
(dp2730
g54
(dp2731
sg63
g2716
sg56
(lp2732
g49
(g50
g51
NtRp2733
(dp2734
g54
(dp2735
g62
I3
ssg63
g2729
sg56
(lp2736
g1339
asbasbasbag49
(g65
g51
NtRp2737
(dp2738
g54
(dp2739
sg63
g2523
sg56
(lp2740
g49
(g70
g51
NtRp2741
(dp2742
g54
(dp2743
g74
g75
ssg63
g2737
sg56
(lp2744
S'QUERY_STRING'
p2745
asbag49
(g70
g51
NtRp2746
(dp2747
g54
(dp2748
g81
g82
ssg63
g2737
sg56
(lp2749
S':'
asbag49
(g70
g51
NtRp2750
(dp2751
g54
(dp2752
sg63
g2737
sg56
(lp2753
g49
(g50
g51
NtRp2754
(dp2755
g54
(dp2756
g62
I3
ssg63
g2750
sg56
(lp2757
S''
asbasbasbag49
(g65
g51
NtRp2758
(dp2759
g54
(dp2760
sg63
g2523
sg56
(lp2761
g49
(g70
g51
NtRp2762
(dp2763
g54
(dp2764
g74
g75
ssg63
g2758
sg56
(lp2765
S'REMOTE_ADDR'
p2766
asbag49
(g70
g51
NtRp2767
(dp2768
g54
(dp2769
g81
g82
ssg63
g2758
sg56
(lp2770
S':'
asbag49
(g70
g51
NtRp2771
(dp2772
g54
(dp2773
sg63
g2758
sg56
(lp2774
g49
(g50
g51
NtRp2775
(dp2776
g54
(dp2777
g62
I3
ssg63
g2771
sg56
(lp2778
g182
asbasbasbag49
(g65
g51
NtRp2779
(dp2780
g54
(dp2781
sg63
g2523
sg56
(lp2782
g49
(g70
g51
NtRp2783
(dp2784
g54
(dp2785
g74
g75
ssg63
g2779
sg56
(lp2786
S'REMOTE_PORT'
p2787
asbag49
(g70
g51
NtRp2788
(dp2789
g54
(dp2790
g81
g82
ssg63
g2779
sg56
(lp2791
S':'
asbag49
(g70
g51
NtRp2792
(dp2793
g54
(dp2794
sg63
g2779
sg56
(lp2795
g49
(g50
g51
NtRp2796
(dp2797
g54
(dp2798
g62
I3
ssg63
g2792
sg56
(lp2799
g1403
asbasbasbag49
(g65
g51
NtRp2800
(dp2801
g54
(dp2802
sg63
g2523
sg56
(lp2803
g49
(g70
g51
NtRp2804
(dp2805
g54
(dp2806
g74
g75
ssg63
g2800
sg56
(lp2807
S'REQUEST_METHOD'
p2808
asbag49
(g70
g51
NtRp2809
(dp2810
g54
(dp2811
g81
g82
ssg63
g2800
sg56
(lp2812
S':'
asbag49
(g70
g51
NtRp2813
(dp2814
g54
(dp2815
sg63
g2800
sg56
(lp2816
g49
(g50
g51
NtRp2817
(dp2818
g54
(dp2819
g62
I3
ssg63
g2813
sg56
(lp2820
g1425
asbasbasbag49
(g65
g51
NtRp2821
(dp2822
g54
(dp2823
sg63
g2523
sg56
(lp2824
g49
(g70
g51
NtRp2825
(dp2826
g54
(dp2827
g74
g75
ssg63
g2821
sg56
(lp2828
S'SCRIPT_NAME'
p2829
asbag49
(g70
g51
NtRp2830
(dp2831
g54
(dp2832
g81
g82
ssg63
g2821
sg56
(lp2833
S':'
asbag49
(g70
g51
NtRp2834
(dp2835
g54
(dp2836
sg63
g2821
sg56
(lp2837
g49
(g50
g51
NtRp2838
(dp2839
g54
(dp2840
g62
I3
ssg63
g2834
sg56
(lp2841
S''
asbasbasbag49
(g65
g51
NtRp2842
(dp2843
g54
(dp2844
sg63
g2523
sg56
(lp2845
g49
(g70
g51
NtRp2846
(dp2847
g54
(dp2848
g74
g75
ssg63
g2842
sg56
(lp2849
S'SERVER_NAME'
p2850
asbag49
(g70
g51
NtRp2851
(dp2852
g54
(dp2853
g81
g82
ssg63
g2842
sg56
(lp2854
S':'
asbag49
(g70
g51
NtRp2855
(dp2856
g54
(dp2857
sg63
g2842
sg56
(lp2858
g49
(g50
g51
NtRp2859
(dp2860
g54
(dp2861
g62
I3
ssg63
g2855
sg56
(lp2862
g1468
asbasbasbag49
(g65
g51
NtRp2863
(dp2864
g54
(dp2865
sg63
g2523
sg56
(lp2866
g49
(g70
g51
NtRp2867
(dp2868
g54
(dp2869
g74
g75
ssg63
g2863
sg56
(lp2870
S'SERVER_PORT'
p2871
asbag49
(g70
g51
NtRp2872
(dp2873
g54
(dp2874
g81
g82
ssg63
g2863
sg56
(lp2875
S':'
asbag49
(g70
g51
NtRp2876
(dp2877
g54
(dp2878
sg63
g2863
sg56
(lp2879
g49
(g50
g51
NtRp2880
(dp2881
g54
(dp2882
g62
I3
ssg63
g2876
sg56
(lp2883
g1490
asbasbasbag49
(g65
g51
NtRp2884
(dp2885
g54
(dp2886
sg63
g2523
sg56
(lp2887
g49
(g70
g51
NtRp2888
(dp2889
g54
(dp2890
g74
g75
ssg63
g2884
sg56
(lp2891
S'SERVER_PROTOCOL'
p2892
asbag49
(g70
g51
NtRp2893
(dp2894
g54
(dp2895
g81
g82
ssg63
g2884
sg56
(lp2896
S':'
asbag49
(g70
g51
NtRp2897
(dp2898
g54
(dp2899
sg63
g2884
sg56
(lp2900
g49
(g50
g51
NtRp2901
(dp2902
g54
(dp2903
g62
I3
ssg63
g2897
sg56
(lp2904
g1512
asbasbasbag49
(g65
g51
NtRp2905
(dp2906
g54
(dp2907
sg63
g2523
sg56
(lp2908
g49
(g70
g51
NtRp2909
(dp2910
g54
(dp2911
g74
g75
ssg63
g2905
sg56
(lp2912
S'SERVER_SOFTWARE'
p2913
asbag49
(g70
g51
NtRp2914
(dp2915
g54
(dp2916
g81
g82
ssg63
g2905
sg56
(lp2917
S':'
asbag49
(g70
g51
NtRp2918
(dp2919
g54
(dp2920
sg63
g2905
sg56
(lp2921
g49
(g50
g51
NtRp2922
(dp2923
g54
(dp2924
g62
I3
ssg63
g2918
sg56
(lp2925
g1534
asbasbasbag49
(g65
g51
NtRp2926
(dp2927
g54
(dp2928
sg63
g2523
sg56
(lp2929
g49
(g70
g51
NtRp2930
(dp2931
g54
(dp2932
g74
g75
ssg63
g2926
sg56
(lp2933
S'wsgi.errors'
p2934
asbag49
(g70
g51
NtRp2935
(dp2936
g54
(dp2937
g81
g82
ssg63
g2926
sg56
(lp2938
S':'
asbag49
(g70
g51
NtRp2939
(dp2940
g54
(dp2941
sg63
g2926
sg56
(lp2942
g49
(g50
g51
NtRp2943
(dp2944
g54
(dp2945
g62
I3
ssg63
g2939
sg56
(lp2946
S"<open file '<stderr>', mode 'w' at 0x540b0>"
p2947
asbasbasbag49
(g65
g51
NtRp2948
(dp2949
g54
(dp2950
sg63
g2523
sg56
(lp2951
g49
(g70
g51
NtRp2952
(dp2953
g54
(dp2954
g74
g75
ssg63
g2948
sg56
(lp2955
S'wsgi.file_wrapper'
p2956
asbag49
(g70
g51
NtRp2957
(dp2958
g54
(dp2959
g81
g82
ssg63
g2948
sg56
(lp2960
S':'
asbag49
(g70
g51
NtRp2961
(dp2962
g54
(dp2963
sg63
g2948
sg56
(lp2964
g49
(g50
g51
NtRp2965
(dp2966
g54
(dp2967
g62
I3
ssg63
g2961
sg56
(lp2968
S'<class wsgiref.util.FileWrapper at 0x75816c0>'
p2969
asbasbasbag49
(g65
g51
NtRp2970
(dp2971
g54
(dp2972
sg63
g2523
sg56
(lp2973
g49
(g70
g51
NtRp2974
(dp2975
g54
(dp2976
g74
g75
ssg63
g2970
sg56
(lp2977
S'wsgi.input'
p2978
asbag49
(g70
g51
NtRp2979
(dp2980
g54
(dp2981
g81
g82
ssg63
g2970
sg56
(lp2982
S':'
asbag49
(g70
g51
NtRp2983
(dp2984
g54
(dp2985
sg63
g2970
sg56
(lp2986
g49
(g50
g51
NtRp2987
(dp2988
g54
(dp2989
g62
I3
ssg63
g2983
sg56
(lp2990
S'<cStringIO.StringO object at 0x7e22b60>'
p2991
asbasbasbag49
(g65
g51
NtRp2992
(dp2993
g54
(dp2994
sg63
g2523
sg56
(lp2995
g49
(g70
g51
NtRp2996
(dp2997
g54
(dp2998
g74
g75
ssg63
g2992
sg56
(lp2999
S'wsgi.multiprocess'
p3000
asbag49
(g70
g51
NtRp3001
(dp3002
g54
(dp3003
g81
g82
ssg63
g2992
sg56
(lp3004
S':'
asbag49
(g70
g51
NtRp3005
(dp3006
g54
(dp3007
sg63
g2992
sg56
(lp3008
g49
(g50
g51
NtRp3009
(dp3010
g54
(dp3011
g62
I3
ssg63
g3005
sg56
(lp3012
g92
asbasbasbag49
(g65
g51
NtRp3013
(dp3014
g54
(dp3015
sg63
g2523
sg56
(lp3016
g49
(g70
g51
NtRp3017
(dp3018
g54
(dp3019
g74
g75
ssg63
g3013
sg56
(lp3020
S'wsgi.multithread'
p3021
asbag49
(g70
g51
NtRp3022
(dp3023
g54
(dp3024
g81
g82
ssg63
g3013
sg56
(lp3025
S':'
asbag49
(g70
g51
NtRp3026
(dp3027
g54
(dp3028
sg63
g3013
sg56
(lp3029
g49
(g50
g51
NtRp3030
(dp3031
g54
(dp3032
g62
I3
ssg63
g3026
sg56
(lp3033
g1774
asbasbasbag49
(g65
g51
NtRp3034
(dp3035
g54
(dp3036
sg63
g2523
sg56
(lp3037
g49
(g70
g51
NtRp3038
(dp3039
g54
(dp3040
g74
g75
ssg63
g3034
sg56
(lp3041
S'wsgi.run_once'
p3042
asbag49
(g70
g51
NtRp3043
(dp3044
g54
(dp3045
g81
g82
ssg63
g3034
sg56
(lp3046
S':'
asbag49
(g70
g51
NtRp3047
(dp3048
g54
(dp3049
sg63
g3034
sg56
(lp3050
g49
(g50
g51
NtRp3051
(dp3052
g54
(dp3053
g62
I3
ssg63
g3047
sg56
(lp3054
g92
asbasbasbag49
(g65
g51
NtRp3055
(dp3056
g54
(dp3057
sg63
g2523
sg56
(lp3058
g49
(g70
g51
NtRp3059
(dp3060
g54
(dp3061
g74
g75
ssg63
g3055
sg56
(lp3062
S'wsgi.url_scheme'
p3063
asbag49
(g70
g51
NtRp3064
(dp3065
g54
(dp3066
g81
g82
ssg63
g3055
sg56
(lp3067
S':'
asbag49
(g70
g51
NtRp3068
(dp3069
g54
(dp3070
sg63
g3055
sg56
(lp3071
g49
(g50
g51
NtRp3072
(dp3073
g54
(dp3074
g62
I3
ssg63
g3068
sg56
(lp3075
g1817
asbasbasbag49
(g65
g51
NtRp3076
(dp3077
g54
(dp3078
sg63
g2523
sg56
(lp3079
g49
(g70
g51
NtRp3080
(dp3081
g54
(dp3082
g74
g75
ssg63
g3076
sg56
(lp3083
S'wsgi.version'
p3084
asbag49
(g70
g51
NtRp3085
(dp3086
g54
(dp3087
g81
g82
ssg63
g3076
sg56
(lp3088
S':'
asbag49
(g70
g51
NtRp3089
(dp3090
g54
(dp3091
sg63
g3076
sg56
(lp3092
g49
(g50
g51
NtRp3093
(dp3094
g54
(dp3095
g62
I3
ssg63
g3089
sg56
(lp3096
S'1'
asbasbasbasbasbasbasbasbasbasbasbasbasbsS'frames'
p3097
(lp3098
(dp3099
S'file'
p3100
S'/Users/lyonwj/Developer/web2py/web2py.app/Contents/Resources/gluon/restricted.py'
p3101
sS'dump'
p3102
(dp3103
sS'lnum'
p3104
I205
sS'lines'
p3105
(dp3106
sS'call'
p3107
S"(code='# -*- coding: utf-8 -*-\\n# this file is released ...=crud())\\n\\nresponse._vars=response._caller(index)\\n', environment={'A': <class 'gluon.html.A'>, 'Auth': <class 'gluon.tools.Auth'>, 'B': <class 'gluon.html.B'>, 'BEAUTIFY': <class 'gluon.html.BEAUTIFY'>, 'BODY': <class 'gluon.html.BODY'>, 'BR': <class 'gluon.html.BR'>, 'BUTTON': <class 'gluon.html.BUTTON'>, 'CAT': <class 'gluon.html.CAT'>, 'CENTER': <class 'gluon.html.CENTER'>, 'CLEANUP': <class 'gluon.validators.CLEANUP'>, ...}, layer='/Users/lyonwj/Developer/web2py/web2py.app/Conten...es/applications/NewzTrader/controllers/default.py')"
p3108
sS'func'
p3109
S'restricted'
p3110
sa(dp3111
g3100
S'/Users/lyonwj/Developer/web2py/web2py.app/Contents/Resources/applications/NewzTrader/controllers/default.py'
p3112
sg3102
(dp3113
sg3104
I11
sg3105
(dp3114
I6
S'## - index is the default action of any application'
p3115
sI7
S'## - user is required for authentication and authorization'
p3116
sI8
S'## - download is for downloading files uploaded in the db (does streaming)'
p3117
sI9
S'## - call exposes all registered services (none by default)'
p3118
sI10
S'#########################################################################'
p3119
sI11
S'from lxml import etree'
p3120
sI12
S'import datetime'
p3121
sI13
S'from datetime import datetime'
p3122
sI14
S'from datetime import date'
p3123
sI15
S'from datetime import timedelta'
p3124
ssg3107
S'()'
p3125
sg3109
S'<module>'
p3126
sa(dp3127
g3100
S'/Users/lyonwj/Developer/web2py/web2py.app/Contents/Resources/gluon/custom_import.py'
p3128
sg3102
(dp3129
sg3104
I293
sg3105
(dp3130
sg3107
S"(self=<gluon.custom_import._Web2pyImporter object at 0x7524a70>, name='lxml', globals={'A': <class 'gluon.html.A'>, 'Auth': <class 'gluon.tools.Auth'>, 'B': <class 'gluon.html.B'>, 'BEAUTIFY': <class 'gluon.html.BEAUTIFY'>, 'BODY': <class 'gluon.html.BODY'>, 'BR': <class 'gluon.html.BR'>, 'BUTTON': <class 'gluon.html.BUTTON'>, 'CAT': <class 'gluon.html.CAT'>, 'CENTER': <class 'gluon.html.CENTER'>, 'CLEANUP': <class 'gluon.validators.CLEANUP'>, ...}, locals={'A': <class 'gluon.html.A'>, 'Auth': <class 'gluon.tools.Auth'>, 'B': <class 'gluon.html.B'>, 'BEAUTIFY': <class 'gluon.html.BEAUTIFY'>, 'BODY': <class 'gluon.html.BODY'>, 'BR': <class 'gluon.html.BR'>, 'BUTTON': <class 'gluon.html.BUTTON'>, 'CAT': <class 'gluon.html.CAT'>, 'CENTER': <class 'gluon.html.CENTER'>, 'CLEANUP': <class 'gluon.validators.CLEANUP'>, ...}, fromlist=('etree',), level=-1)"
p3131
sg3109
S'__call__'
p3132
sa(dp3133
g3100
S'/Users/lyonwj/Developer/web2py/web2py.app/Contents/Resources/gluon/custom_import.py'
p3134
sg3102
(dp3135
sg3104
I78
sg3105
(dp3136
sg3107
S"(self=<gluon.custom_import._Web2pyImporter object at 0x7524a70>, name='lxml', globals={'A': <class 'gluon.html.A'>, 'Auth': <class 'gluon.tools.Auth'>, 'B': <class 'gluon.html.B'>, 'BEAUTIFY': <class 'gluon.html.BEAUTIFY'>, 'BODY': <class 'gluon.html.BODY'>, 'BR': <class 'gluon.html.BR'>, 'BUTTON': <class 'gluon.html.BUTTON'>, 'CAT': <class 'gluon.html.CAT'>, 'CENTER': <class 'gluon.html.CENTER'>, 'CLEANUP': <class 'gluon.validators.CLEANUP'>, ...}, locals={'A': <class 'gluon.html.A'>, 'Auth': <class 'gluon.tools.Auth'>, 'B': <class 'gluon.html.B'>, 'BEAUTIFY': <class 'gluon.html.BEAUTIFY'>, 'BODY': <class 'gluon.html.BODY'>, 'BR': <class 'gluon.html.BR'>, 'BUTTON': <class 'gluon.html.BUTTON'>, 'CAT': <class 'gluon.html.CAT'>, 'CENTER': <class 'gluon.html.CENTER'>, 'CLEANUP': <class 'gluon.validators.CLEANUP'>, ...}, fromlist=('etree',), level=-1)"
p3137
sg3109
g3132
sasS'pyver'
p3138
S'Python 2.5.1: /Users/lyonwj/Developer/web2py/web2py.app/Contents/MacOS/python'
p3139
sS'session'
p3140
g49
(g50
g51
NtRp3141
(dp3142
g54
(dp3143
sg56
(lp3144
g49
(g58
g51
NtRp3145
(dp3146
g54
(dp3147
g62
I5
ssg63
Nsg56
(lp3148
sbasbsS'etype'
p3149
S"<type 'exceptions.ImportError'>"
p3150
sS'date'
p3151
S'Thu Nov 15 12:34:07 2012'
p3152
sS'response'
p3153
g49
(g50
g51
NtRp3154
(dp3155
g54
(dp3156
sg56
(lp3157
g49
(g58
g51
NtRp3158
(dp3159
g54
(dp3160
g62
I5
ssg63
Nsg56
(lp3161
g49
(g65
g51
NtRp3162
(dp3163
g54
(dp3164
sg63
g3158
sg56
(lp3165
g49
(g70
g51
NtRp3166
(dp3167
g54
(dp3168
g74
g75
ssg63
g3162
sg56
(lp3169
g147
asbag49
(g70
g51
NtRp3170
(dp3171
g54
(dp3172
g81
g82
ssg63
g3162
sg56
(lp3173
S':'
asbag49
(g70
g51
NtRp3174
(dp3175
g54
(dp3176
sg63
g3162
sg56
(lp3177
g49
(g50
g51
NtRp3178
(dp3179
g54
(dp3180
g62
I5
ssg63
g3174
sg56
(lp3181
S'<cStringIO.StringO object at 0x9f11b00>'
p3182
asbasbasbag49
(g65
g51
NtRp3183
(dp3184
g54
(dp3185
sg63
g3158
sg56
(lp3186
g49
(g70
g51
NtRp3187
(dp3188
g54
(dp3189
g74
g75
ssg63
g3183
sg56
(lp3190
g213
asbag49
(g70
g51
NtRp3191
(dp3192
g54
(dp3193
g81
g82
ssg63
g3183
sg56
(lp3194
S':'
asbag49
(g70
g51
NtRp3195
(dp3196
g54
(dp3197
sg63
g3183
sg56
(lp3198
g49
(g50
g51
NtRp3199
(dp3200
g54
(dp3201
g62
I5
ssg63
g3195
sg56
(lp3202
g49
(g58
g51
NtRp3203
(dp3204
g54
(dp3205
g62
I4
ssg63
Nsg56
(lp3206
g49
(g65
g51
NtRp3207
(dp3208
g54
(dp3209
sg63
g3203
sg56
(lp3210
g49
(g70
g51
NtRp3211
(dp3212
g54
(dp3213
g74
g75
ssg63
g3207
sg56
(lp3214
S'session_id_newztrader'
p3215
asbag49
(g70
g51
NtRp3216
(dp3217
g54
(dp3218
g81
g82
ssg63
g3207
sg56
(lp3219
S':'
asbag49
(g70
g51
NtRp3220
(dp3221
g54
(dp3222
sg63
g3207
sg56
(lp3223
g49
(g50
g51
NtRp3224
(dp3225
g54
(dp3226
g62
I4
ssg63
g3220
sg56
(lp3227
g49
(g58
g51
NtRp3228
(dp3229
g54
(dp3230
g62
I3
ssg63
Nsg56
(lp3231
g49
(g65
g51
NtRp3232
(dp3233
g54
(dp3234
sg63
g3228
sg56
(lp3235
g49
(g70
g51
NtRp3236
(dp3237
g54
(dp3238
g74
g75
ssg63
g3232
sg56
(lp3239
g263
asbag49
(g70
g51
NtRp3240
(dp3241
g54
(dp3242
g81
g82
ssg63
g3232
sg56
(lp3243
S':'
asbag49
(g70
g51
NtRp3244
(dp3245
g54
(dp3246
sg63
g3232
sg56
(lp3247
g49
(g50
g51
NtRp3248
(dp3249
g54
(dp3250
g62
I3
ssg63
g3244
sg56
(lp3251
S''
asbasbasbag49
(g65
g51
NtRp3252
(dp3253
g54
(dp3254
sg63
g3228
sg56
(lp3255
g49
(g70
g51
NtRp3256
(dp3257
g54
(dp3258
g74
g75
ssg63
g3252
sg56
(lp3259
g284
asbag49
(g70
g51
NtRp3260
(dp3261
g54
(dp3262
g81
g82
ssg63
g3252
sg56
(lp3263
S':'
asbag49
(g70
g51
NtRp3264
(dp3265
g54
(dp3266
sg63
g3252
sg56
(lp3267
g49
(g50
g51
NtRp3268
(dp3269
g54
(dp3270
g62
I3
ssg63
g3264
sg56
(lp3271
S''
asbasbasbag49
(g65
g51
NtRp3272
(dp3273
g54
(dp3274
sg63
g3228
sg56
(lp3275
g49
(g70
g51
NtRp3276
(dp3277
g54
(dp3278
g74
g75
ssg63
g3272
sg56
(lp3279
g305
asbag49
(g70
g51
NtRp3280
(dp3281
g54
(dp3282
g81
g82
ssg63
g3272
sg56
(lp3283
S':'
asbag49
(g70
g51
NtRp3284
(dp3285
g54
(dp3286
sg63
g3272
sg56
(lp3287
g49
(g50
g51
NtRp3288
(dp3289
g54
(dp3290
g62
I3
ssg63
g3284
sg56
(lp3291
S''
asbasbasbag49
(g65
g51
NtRp3292
(dp3293
g54
(dp3294
sg63
g3228
sg56
(lp3295
g49
(g70
g51
NtRp3296
(dp3297
g54
(dp3298
g74
g75
ssg63
g3292
sg56
(lp3299
g326
asbag49
(g70
g51
NtRp3300
(dp3301
g54
(dp3302
g81
g82
ssg63
g3292
sg56
(lp3303
S':'
asbag49
(g70
g51
NtRp3304
(dp3305
g54
(dp3306
sg63
g3292
sg56
(lp3307
g49
(g50
g51
NtRp3308
(dp3309
g54
(dp3310
g62
I3
ssg63
g3304
sg56
(lp3311
S''
asbasbasbag49
(g65
g51
NtRp3312
(dp3313
g54
(dp3314
sg63
g3228
sg56
(lp3315
g49
(g70
g51
NtRp3316
(dp3317
g54
(dp3318
g74
g75
ssg63
g3312
sg56
(lp3319
g347
asbag49
(g70
g51
NtRp3320
(dp3321
g54
(dp3322
g81
g82
ssg63
g3312
sg56
(lp3323
S':'
asbag49
(g70
g51
NtRp3324
(dp3325
g54
(dp3326
sg63
g3312
sg56
(lp3327
g49
(g50
g51
NtRp3328
(dp3329
g54
(dp3330
g62
I3
ssg63
g3324
sg56
(lp3331
S'/'
asbasbasbag49
(g65
g51
NtRp3332
(dp3333
g54
(dp3334
sg63
g3228
sg56
(lp3335
g49
(g70
g51
NtRp3336
(dp3337
g54
(dp3338
g74
g75
ssg63
g3332
sg56
(lp3339
g368
asbag49
(g70
g51
NtRp3340
(dp3341
g54
(dp3342
g81
g82
ssg63
g3332
sg56
(lp3343
S':'
asbag49
(g70
g51
NtRp3344
(dp3345
g54
(dp3346
sg63
g3332
sg56
(lp3347
g49
(g50
g51
NtRp3348
(dp3349
g54
(dp3350
g62
I3
ssg63
g3344
sg56
(lp3351
S''
asbasbasbag49
(g65
g51
NtRp3352
(dp3353
g54
(dp3354
sg63
g3228
sg56
(lp3355
g49
(g70
g51
NtRp3356
(dp3357
g54
(dp3358
g74
g75
ssg63
g3352
sg56
(lp3359
g389
asbag49
(g70
g51
NtRp3360
(dp3361
g54
(dp3362
g81
g82
ssg63
g3352
sg56
(lp3363
S':'
asbag49
(g70
g51
NtRp3364
(dp3365
g54
(dp3366
sg63
g3352
sg56
(lp3367
g49
(g50
g51
NtRp3368
(dp3369
g54
(dp3370
g62
I3
ssg63
g3364
sg56
(lp3371
S''
asbasbasbasbasbasbasbasbasbasbasbag49
(g65
g51
NtRp3372
(dp3373
g54
(dp3374
sg63
g3158
sg56
(lp3375
g49
(g70
g51
NtRp3376
(dp3377
g54
(dp3378
g74
g75
ssg63
g3372
sg56
(lp3379
S'delimiters'
p3380
asbag49
(g70
g51
NtRp3381
(dp3382
g54
(dp3383
g81
g82
ssg63
g3372
sg56
(lp3384
S':'
asbag49
(g70
g51
NtRp3385
(dp3386
g54
(dp3387
sg63
g3372
sg56
(lp3388
g49
(g50
g51
NtRp3389
(dp3390
g54
(dp3391
g62
I5
ssg63
g3385
sg56
(lp3392
g49
(g58
g51
NtRp3393
(dp3394
g54
(dp3395
g62
I4
ssg63
Nsg56
(lp3396
g49
(g65
g51
NtRp3397
(dp3398
g54
(dp3399
sg63
g3393
sg56
(lp3400
g49
(g70
g51
NtRp3401
(dp3402
g54
(dp3403
sg63
g3397
sg56
(lp3404
g49
(g50
g51
NtRp3405
(dp3406
g54
(dp3407
g62
I4
ssg63
g3401
sg56
(lp3408
S'{{'
p3409
asbasbasbag49
(g65
g51
NtRp3410
(dp3411
g54
(dp3412
sg63
g3393
sg56
(lp3413
g49
(g70
g51
NtRp3414
(dp3415
g54
(dp3416
sg63
g3410
sg56
(lp3417
g49
(g50
g51
NtRp3418
(dp3419
g54
(dp3420
g62
I4
ssg63
g3414
sg56
(lp3421
S'}}'
p3422
asbasbasbasbasbasbasbag49
(g65
g51
NtRp3423
(dp3424
g54
(dp3425
sg63
g3158
sg56
(lp3426
g49
(g70
g51
NtRp3427
(dp3428
g54
(dp3429
g74
g75
ssg63
g3423
sg56
(lp3430
S'files'
p3431
asbag49
(g70
g51
NtRp3432
(dp3433
g54
(dp3434
g81
g82
ssg63
g3423
sg56
(lp3435
S':'
asbag49
(g70
g51
NtRp3436
(dp3437
g54
(dp3438
sg63
g3423
sg56
(lp3439
g49
(g50
g51
NtRp3440
(dp3441
g54
(dp3442
g62
I5
ssg63
g3436
sg56
(lp3443
g49
(g58
g51
NtRp3444
(dp3445
g54
(dp3446
g62
I4
ssg63
Nsg56
(lp3447
sbasbasbasbag49
(g65
g51
NtRp3448
(dp3449
g54
(dp3450
sg63
g3158
sg56
(lp3451
g49
(g70
g51
NtRp3452
(dp3453
g54
(dp3454
g74
g75
ssg63
g3448
sg56
(lp3455
S'flash'
p3456
asbag49
(g70
g51
NtRp3457
(dp3458
g54
(dp3459
g81
g82
ssg63
g3448
sg56
(lp3460
S':'
asbag49
(g70
g51
NtRp3461
(dp3462
g54
(dp3463
sg63
g3448
sg56
(lp3464
g49
(g50
g51
NtRp3465
(dp3466
g54
(dp3467
g62
I5
ssg63
g3461
sg56
(lp3468
S''
asbasbasbag49
(g65
g51
NtRp3469
(dp3470
g54
(dp3471
sg63
g3158
sg56
(lp3472
g49
(g70
g51
NtRp3473
(dp3474
g54
(dp3475
g74
g75
ssg63
g3469
sg56
(lp3476
S'generic_patterns'
p3477
asbag49
(g70
g51
NtRp3478
(dp3479
g54
(dp3480
g81
g82
ssg63
g3469
sg56
(lp3481
S':'
asbag49
(g70
g51
NtRp3482
(dp3483
g54
(dp3484
sg63
g3469
sg56
(lp3485
g49
(g50
g51
NtRp3486
(dp3487
g54
(dp3488
g62
I5
ssg63
g3482
sg56
(lp3489
g49
(g58
g51
NtRp3490
(dp3491
g54
(dp3492
g62
I4
ssg63
Nsg56
(lp3493
g49
(g65
g51
NtRp3494
(dp3495
g54
(dp3496
sg63
g3490
sg56
(lp3497
g49
(g70
g51
NtRp3498
(dp3499
g54
(dp3500
sg63
g3494
sg56
(lp3501
g49
(g50
g51
NtRp3502
(dp3503
g54
(dp3504
g62
I4
ssg63
g3498
sg56
(lp3505
S'*'
asbasbasbasbasbasbasbag49
(g65
g51
NtRp3506
(dp3507
g54
(dp3508
sg63
g3158
sg56
(lp3509
g49
(g70
g51
NtRp3510
(dp3511
g54
(dp3512
g74
g75
ssg63
g3506
sg56
(lp3513
S'headers'
p3514
asbag49
(g70
g51
NtRp3515
(dp3516
g54
(dp3517
g81
g82
ssg63
g3506
sg56
(lp3518
S':'
asbag49
(g70
g51
NtRp3519
(dp3520
g54
(dp3521
sg63
g3506
sg56
(lp3522
g49
(g50
g51
NtRp3523
(dp3524
g54
(dp3525
g62
I5
ssg63
g3519
sg56
(lp3526
g49
(g58
g51
NtRp3527
(dp3528
g54
(dp3529
g62
I4
ssg63
Nsg56
(lp3530
g49
(g65
g51
NtRp3531
(dp3532
g54
(dp3533
sg63
g3527
sg56
(lp3534
g49
(g70
g51
NtRp3535
(dp3536
g54
(dp3537
g74
g75
ssg63
g3531
sg56
(lp3538
S'Cache-Control'
p3539
asbag49
(g70
g51
NtRp3540
(dp3541
g54
(dp3542
g81
g82
ssg63
g3531
sg56
(lp3543
S':'
asbag49
(g70
g51
NtRp3544
(dp3545
g54
(dp3546
sg63
g3531
sg56
(lp3547
g49
(g50
g51
NtRp3548
(dp3549
g54
(dp3550
g62
I4
ssg63
g3544
sg56
(lp3551
S'no-store, no-cache, must-revalidate, post-check=0, pre-check=0'
p3552
asbasbasbag49
(g65
g51
NtRp3553
(dp3554
g54
(dp3555
sg63
g3527
sg56
(lp3556
g49
(g70
g51
NtRp3557
(dp3558
g54
(dp3559
g74
g75
ssg63
g3553
sg56
(lp3560
S'Content-Type'
p3561
asbag49
(g70
g51
NtRp3562
(dp3563
g54
(dp3564
g81
g82
ssg63
g3553
sg56
(lp3565
S':'
asbag49
(g70
g51
NtRp3566
(dp3567
g54
(dp3568
sg63
g3553
sg56
(lp3569
g49
(g50
g51
NtRp3570
(dp3571
g54
(dp3572
g62
I4
ssg63
g3566
sg56
(lp3573
S'text/html; charset=utf-8'
p3574
asbasbasbag49
(g65
g51
NtRp3575
(dp3576
g54
(dp3577
sg63
g3527
sg56
(lp3578
g49
(g70
g51
NtRp3579
(dp3580
g54
(dp3581
g74
g75
ssg63
g3575
sg56
(lp3582
S'Expires'
p3583
asbag49
(g70
g51
NtRp3584
(dp3585
g54
(dp3586
g81
g82
ssg63
g3575
sg56
(lp3587
S':'
asbag49
(g70
g51
NtRp3588
(dp3589
g54
(dp3590
sg63
g3575
sg56
(lp3591
g49
(g50
g51
NtRp3592
(dp3593
g54
(dp3594
g62
I4
ssg63
g3588
sg56
(lp3595
S'Thu, 15 Nov 2012 19:34:07 GMT'
p3596
asbasbasbag49
(g65
g51
NtRp3597
(dp3598
g54
(dp3599
sg63
g3527
sg56
(lp3600
g49
(g70
g51
NtRp3601
(dp3602
g54
(dp3603
g74
g75
ssg63
g3597
sg56
(lp3604
S'Pragma'
p3605
asbag49
(g70
g51
NtRp3606
(dp3607
g54
(dp3608
g81
g82
ssg63
g3597
sg56
(lp3609
S':'
asbag49
(g70
g51
NtRp3610
(dp3611
g54
(dp3612
sg63
g3597
sg56
(lp3613
g49
(g50
g51
NtRp3614
(dp3615
g54
(dp3616
g62
I4
ssg63
g3610
sg56
(lp3617
S'no-cache'
p3618
asbasbasbag49
(g65
g51
NtRp3619
(dp3620
g54
(dp3621
sg63
g3527
sg56
(lp3622
g49
(g70
g51
NtRp3623
(dp3624
g54
(dp3625
g74
g75
ssg63
g3619
sg56
(lp3626
S'X-Powered-By'
p3627
asbag49
(g70
g51
NtRp3628
(dp3629
g54
(dp3630
g81
g82
ssg63
g3619
sg56
(lp3631
S':'
asbag49
(g70
g51
NtRp3632
(dp3633
g54
(dp3634
sg63
g3619
sg56
(lp3635
g49
(g50
g51
NtRp3636
(dp3637
g54
(dp3638
g62
I4
ssg63
g3632
sg56
(lp3639
S'web2py'
p3640
asbasbasbasbasbasbasbag49
(g65
g51
NtRp3641
(dp3642
g54
(dp3643
sg63
g3158
sg56
(lp3644
g49
(g70
g51
NtRp3645
(dp3646
g54
(dp3647
g74
g75
ssg63
g3641
sg56
(lp3648
S'menu'
p3649
asbag49
(g70
g51
NtRp3650
(dp3651
g54
(dp3652
g81
g82
ssg63
g3641
sg56
(lp3653
S':'
asbag49
(g70
g51
NtRp3654
(dp3655
g54
(dp3656
sg63
g3641
sg56
(lp3657
g49
(g50
g51
NtRp3658
(dp3659
g54
(dp3660
g62
I5
ssg63
g3654
sg56
(lp3661
g49
(g58
g51
NtRp3662
(dp3663
g54
(dp3664
g62
I4
ssg63
Nsg56
(lp3665
g49
(g65
g51
NtRp3666
(dp3667
g54
(dp3668
sg63
g3662
sg56
(lp3669
g49
(g70
g51
NtRp3670
(dp3671
g54
(dp3672
sg63
g3666
sg56
(lp3673
g49
(g50
g51
NtRp3674
(dp3675
g54
(dp3676
g62
I4
ssg63
g3670
sg56
(lp3677
g49
(g58
g51
NtRp3678
(dp3679
g54
(dp3680
g62
I3
ssg63
Nsg56
(lp3681
g49
(g65
g51
NtRp3682
(dp3683
g54
(dp3684
sg63
g3678
sg56
(lp3685
g49
(g70
g51
NtRp3686
(dp3687
g54
(dp3688
sg63
g3682
sg56
(lp3689
g49
(g50
g51
NtRp3690
(dp3691
g54
(dp3692
g62
I3
ssg63
g3686
sg56
(lp3693
cgluon.languages
lazyT_unpickle
p3694
(S's\x04\x00\x00\x00Home'
tRp3695
asbasbasbag49
(g65
g51
NtRp3696
(dp3697
g54
(dp3698
sg63
g3678
sg56
(lp3699
g49
(g70
g51
NtRp3700
(dp3701
g54
(dp3702
sg63
g3696
sg56
(lp3703
g49
(g50
g51
NtRp3704
(dp3705
g54
(dp3706
g62
I3
ssg63
g3700
sg56
(lp3707
g92
asbasbasbag49
(g65
g51
NtRp3708
(dp3709
g54
(dp3710
sg63
g3678
sg56
(lp3711
g49
(g70
g51
NtRp3712
(dp3713
g54
(dp3714
sg63
g3708
sg56
(lp3715
g49
(g50
g51
NtRp3716
(dp3717
g54
(dp3718
g62
I3
ssg63
g3712
sg56
(lp3719
S'/NewzTrader/default/index'
p3720
asbasbasbag49
(g65
g51
NtRp3721
(dp3722
g54
(dp3723
sg63
g3678
sg56
(lp3724
g49
(g70
g51
NtRp3725
(dp3726
g54
(dp3727
sg63
g3721
sg56
(lp3728
g49
(g50
g51
NtRp3729
(dp3730
g54
(dp3731
g62
I3
ssg63
g3725
sg56
(lp3732
g49
(g58
g51
NtRp3733
(dp3734
g54
(dp3735
g62
I2
ssg63
Nsg56
(lp3736
sbasbasbasbasbasbasbasbag49
(g65
g51
NtRp3737
(dp3738
g54
(dp3739
sg63
g3662
sg56
(lp3740
g49
(g70
g51
NtRp3741
(dp3742
g54
(dp3743
sg63
g3737
sg56
(lp3744
g49
(g50
g51
NtRp3745
(dp3746
g54
(dp3747
g62
I4
ssg63
g3741
sg56
(lp3748
g49
(g58
g51
NtRp3749
(dp3750
g54
(dp3751
g62
I3
ssg63
Nsg56
(lp3752
g49
(g65
g51
NtRp3753
(dp3754
g54
(dp3755
sg63
g3749
sg56
(lp3756
g49
(g70
g51
NtRp3757
(dp3758
g54
(dp3759
sg63
g3753
sg56
(lp3760
g49
(g50
g51
NtRp3761
(dp3762
g54
(dp3763
g62
I3
ssg63
g3757
sg56
(lp3764
g49
(cgluon.html
SPAN
p3765
g51
NtRp3766
(dp3767
g54
(dp3768
g74
S'color:yellow'
p3769
ssg63
Nsg56
(lp3770
g3640
asbasbasbasbag49
(g65
g51
NtRp3771
(dp3772
g54
(dp3773
sg63
g3749
sg56
(lp3774
g49
(g70
g51
NtRp3775
(dp3776
g54
(dp3777
sg63
g3771
sg56
(lp3778
g49
(g50
g51
NtRp3779
(dp3780
g54
(dp3781
g62
I3
ssg63
g3775
sg56
(lp3782
g92
asbasbasbag49
(g65
g51
NtRp3783
(dp3784
g54
(dp3785
sg63
g3749
sg56
(lp3786
g49
(g70
g51
NtRp3787
(dp3788
g54
(dp3789
sg63
g3783
sg56
(lp3790
g49
(g50
g51
NtRp3791
(dp3792
g54
(dp3793
g62
I3
ssg63
g3787
sg56
(lp3794
S'None'
p3795
asbasbasbag49
(g65
g51
NtRp3796
(dp3797
g54
(dp3798
sg63
g3749
sg56
(lp3799
g49
(g70
g51
NtRp3800
(dp3801
g54
(dp3802
sg63
g3796
sg56
(lp3803
g49
(g50
g51
NtRp3804
(dp3805
g54
(dp3806
g62
I3
ssg63
g3800
sg56
(lp3807
g49
(g58
g51
NtRp3808
(dp3809
g54
(dp3810
g62
I2
ssg63
Nsg56
(lp3811
g49
(g65
g51
NtRp3812
(dp3813
g54
(dp3814
sg63
g3808
sg56
(lp3815
g49
(g70
g51
NtRp3816
(dp3817
g54
(dp3818
sg63
g3812
sg56
(lp3819
g49
(g50
g51
NtRp3820
(dp3821
g54
(dp3822
g62
I2
ssg63
g3816
sg56
(lp3823
g49
(g58
g51
NtRp3824
(dp3825
g54
(dp3826
g62
I1
ssg63
Nsg56
(lp3827
g49
(g65
g51
NtRp3828
(dp3829
g54
(dp3830
sg63
g3824
sg56
(lp3831
g49
(g70
g51
NtRp3832
(dp3833
g54
(dp3834
sg63
g3828
sg56
(lp3835
g49
(g50
g51
NtRp3836
(dp3837
g54
(dp3838
g62
I1
ssg63
g3832
sg56
(lp3839
g3694
(S's\x08\x00\x00\x00My Sites'
tRp3840
asbasbasbag49
(g65
g51
NtRp3841
(dp3842
g54
(dp3843
sg63
g3824
sg56
(lp3844
g49
(g70
g51
NtRp3845
(dp3846
g54
(dp3847
sg63
g3841
sg56
(lp3848
g49
(g50
g51
NtRp3849
(dp3850
g54
(dp3851
g62
I1
ssg63
g3845
sg56
(lp3852
I00
asbasbasbag49
(g65
g51
NtRp3853
(dp3854
g54
(dp3855
sg63
g3824
sg56
(lp3856
g49
(g70
g51
NtRp3857
(dp3858
g54
(dp3859
sg63
g3853
sg56
(lp3860
g49
(g50
g51
NtRp3861
(dp3862
g54
(dp3863
g62
I1
ssg63
g3857
sg56
(lp3864
S'/admin/default/site'
p3865
asbasbasbasbasbasbasbag49
(g65
g51
NtRp3866
(dp3867
g54
(dp3868
sg63
g3808
sg56
(lp3869
g49
(g70
g51
NtRp3870
(dp3871
g54
(dp3872
sg63
g3866
sg56
(lp3873
g49
(g50
g51
NtRp3874
(dp3875
g54
(dp3876
g62
I2
ssg63
g3870
sg56
(lp3877
g49
(g58
g51
NtRp3878
(dp3879
g54
(dp3880
g62
I1
ssg63
Nsg56
(lp3881
g49
(g65
g51
NtRp3882
(dp3883
g54
(dp3884
sg63
g3878
sg56
(lp3885
g49
(g70
g51
NtRp3886
(dp3887
g54
(dp3888
sg63
g3882
sg56
(lp3889
g49
(g50
g51
NtRp3890
(dp3891
g54
(dp3892
g62
I1
ssg63
g3886
sg56
(lp3893
g3694
(S's\x08\x00\x00\x00This App'
tRp3894
asbasbasbag49
(g65
g51
NtRp3895
(dp3896
g54
(dp3897
sg63
g3878
sg56
(lp3898
g49
(g70
g51
NtRp3899
(dp3900
g54
(dp3901
sg63
g3895
sg56
(lp3902
g49
(g50
g51
NtRp3903
(dp3904
g54
(dp3905
g62
I1
ssg63
g3899
sg56
(lp3906
I00
asbasbasbag49
(g65
g51
NtRp3907
(dp3908
g54
(dp3909
sg63
g3878
sg56
(lp3910
g49
(g70
g51
NtRp3911
(dp3912
g54
(dp3913
sg63
g3907
sg56
(lp3914
g49
(g50
g51
NtRp3915
(dp3916
g54
(dp3917
g62
I1
ssg63
g3911
sg56
(lp3918
S'/admin/default/design/NewzTrader'
p3919
asbasbasbag49
(g65
g51
NtRp3920
(dp3921
g54
(dp3922
sg63
g3878
sg56
(lp3923
g49
(g70
g51
NtRp3924
(dp3925
g54
(dp3926
sg63
g3920
sg56
(lp3927
g49
(g50
g51
NtRp3928
(dp3929
g54
(dp3930
g62
I1
ssg63
g3924
sg56
(lp3931
(lp3932
(g3694
(S's\n\x00\x00\x00Controller'
tRp3933
I00
S'/admin/default/edit/NewzTrader/controllers/default.py'
tp3934
a(g3694
(S's\x04\x00\x00\x00View'
tRp3935
I00
S'/admin/default/edit/NewzTrader/views/default/index.html'
tp3936
a(g3694
(S's\x06\x00\x00\x00Layout'
tRp3937
I00
S'/admin/default/edit/NewzTrader/views/layout.html'
tp3938
a(g3694
(S's\n\x00\x00\x00Stylesheet'
tRp3939
I00
S'/admin/default/edit/NewzTrader/static/css/web2py.css'
tp3940
a(g3694
(S's\x08\x00\x00\x00DB Model'
tRp3941
I00
S'/admin/default/edit/NewzTrader/models/db.py'
tp3942
a(g3694
(S's\n\x00\x00\x00Menu Model'
tRp3943
I00
S'/admin/default/edit/NewzTrader/models/menu.py'
tp3944
a(g3694
(S's\x08\x00\x00\x00Database'
tRp3945
I00
S'/NewzTrader/appadmin/index'
tp3946
a(g3694
(S's\x06\x00\x00\x00Errors'
tRp3947
I00
S'/admin/default/errors/NewzTrader'
tp3948
a(g3694
(S's\x05\x00\x00\x00About'
tRp3949
I00
S'/admin/default/about/NewzTrader'
tp3950
aasbasbasbasbasbasbasbag49
(g65
g51
NtRp3951
(dp3952
g54
(dp3953
sg63
g3808
sg56
(lp3954
g49
(g70
g51
NtRp3955
(dp3956
g54
(dp3957
sg63
g3951
sg56
(lp3958
g49
(g50
g51
NtRp3959
(dp3960
g54
(dp3961
g62
I2
ssg63
g3955
sg56
(lp3962
g49
(g58
g51
NtRp3963
(dp3964
g54
(dp3965
g62
I1
ssg63
Nsg56
(lp3966
g49
(g65
g51
NtRp3967
(dp3968
g54
(dp3969
sg63
g3963
sg56
(lp3970
g49
(g70
g51
NtRp3971
(dp3972
g54
(dp3973
sg63
g3967
sg56
(lp3974
g49
(g50
g51
NtRp3975
(dp3976
g54
(dp3977
g62
I1
ssg63
g3971
sg56
(lp3978
S'web2py.com'
p3979
asbasbasbag49
(g65
g51
NtRp3980
(dp3981
g54
(dp3982
sg63
g3963
sg56
(lp3983
g49
(g70
g51
NtRp3984
(dp3985
g54
(dp3986
sg63
g3980
sg56
(lp3987
g49
(g50
g51
NtRp3988
(dp3989
g54
(dp3990
g62
I1
ssg63
g3984
sg56
(lp3991
I00
asbasbasbag49
(g65
g51
NtRp3992
(dp3993
g54
(dp3994
sg63
g3963
sg56
(lp3995
g49
(g70
g51
NtRp3996
(dp3997
g54
(dp3998
sg63
g3992
sg56
(lp3999
g49
(g50
g51
NtRp4000
(dp4001
g54
(dp4002
g62
I1
ssg63
g3996
sg56
(lp4003
S'http://www.web2py.com'
p4004
asbasbasbag49
(g65
g51
NtRp4005
(dp4006
g54
(dp4007
sg63
g3963
sg56
(lp4008
g49
(g70
g51
NtRp4009
(dp4010
g54
(dp4011
sg63
g4005
sg56
(lp4012
g49
(g50
g51
NtRp4013
(dp4014
g54
(dp4015
g62
I1
ssg63
g4009
sg56
(lp4016
(lp4017
(g3694
(S's\x08\x00\x00\x00Download'
tRp4018
I00
S'http://www.web2py.com/examples/default/download'
p4019
tp4020
a(g3694
(S's\x07\x00\x00\x00Support'
tRp4021
I00
S'http://www.web2py.com/examples/default/support'
p4022
tp4023
a(g3694
(S's\x04\x00\x00\x00Demo'
tRp4024
I00
S'http://web2py.com/demo_admin'
p4025
tp4026
a(g3694
(S's\x0e\x00\x00\x00Quick Examples'
tRp4027
I00
S'http://web2py.com/examples/default/examples'
p4028
tp4029
a(g3694
(S's\x03\x00\x00\x00FAQ'
tRp4030
I00
S'http://web2py.com/AlterEgo'
p4031
tp4032
a(g3694
(S's\x06\x00\x00\x00Videos'
tRp4033
I00
S'http://www.web2py.com/examples/default/videos/'
p4034
tp4035
a(g3694
(S's\x11\x00\x00\x00Free Applications'
tRp4036
I00
S'http://web2py.com/appliances'
p4037
tp4038
a(g3694
(S's\x07\x00\x00\x00Plugins'
tRp4039
I00
S'http://web2py.com/plugins'
p4040
tp4041
a(g3694
(S's\x07\x00\x00\x00Layouts'
tRp4042
I00
S'http://web2py.com/layouts'
p4043
tp4044
a(g3694
(S's\x07\x00\x00\x00Recipes'
tRp4045
I00
S'http://web2pyslices.com/'
p4046
tp4047
a(g3694
(S's\x08\x00\x00\x00Semantic'
tRp4048
I00
S'http://web2py.com/semantic'
p4049
tp4050
aasbasbasbasbasbasbasbag49
(g65
g51
NtRp4051
(dp4052
g54
(dp4053
sg63
g3808
sg56
(lp4054
g49
(g70
g51
NtRp4055
(dp4056
g54
(dp4057
sg63
g4051
sg56
(lp4058
g49
(g50
g51
NtRp4059
(dp4060
g54
(dp4061
g62
I2
ssg63
g4055
sg56
(lp4062
g49
(g58
g51
NtRp4063
(dp4064
g54
(dp4065
g62
I1
ssg63
Nsg56
(lp4066
g49
(g65
g51
NtRp4067
(dp4068
g54
(dp4069
sg63
g4063
sg56
(lp4070
g49
(g70
g51
NtRp4071
(dp4072
g54
(dp4073
sg63
g4067
sg56
(lp4074
g49
(g50
g51
NtRp4075
(dp4076
g54
(dp4077
g62
I1
ssg63
g4071
sg56
(lp4078
g3694
(S's\r\x00\x00\x00Documentation'
tRp4079
asbasbasbag49
(g65
g51
NtRp4080
(dp4081
g54
(dp4082
sg63
g4063
sg56
(lp4083
g49
(g70
g51
NtRp4084
(dp4085
g54
(dp4086
sg63
g4080
sg56
(lp4087
g49
(g50
g51
NtRp4088
(dp4089
g54
(dp4090
g62
I1
ssg63
g4084
sg56
(lp4091
I00
asbasbasbag49
(g65
g51
NtRp4092
(dp4093
g54
(dp4094
sg63
g4063
sg56
(lp4095
g49
(g70
g51
NtRp4096
(dp4097
g54
(dp4098
sg63
g4092
sg56
(lp4099
g49
(g50
g51
NtRp4100
(dp4101
g54
(dp4102
g62
I1
ssg63
g4096
sg56
(lp4103
S'http://www.web2py.com/book'
p4104
asbasbasbag49
(g65
g51
NtRp4105
(dp4106
g54
(dp4107
sg63
g4063
sg56
(lp4108
g49
(g70
g51
NtRp4109
(dp4110
g54
(dp4111
sg63
g4105
sg56
(lp4112
g49
(g50
g51
NtRp4113
(dp4114
g54
(dp4115
g62
I1
ssg63
g4109
sg56
(lp4116
(lp4117
(g3694
(S's\x07\x00\x00\x00Preface'
tRp4118
I00
S'http://www.web2py.com/book/default/chapter/00'
p4119
tp4120
a(g3694
(S's\x0c\x00\x00\x00Introduction'
tRp4121
I00
S'http://www.web2py.com/book/default/chapter/01'
p4122
tp4123
a(g3694
(S's\x06\x00\x00\x00Python'
tRp4124
I00
S'http://www.web2py.com/book/default/chapter/02'
p4125
tp4126
a(g3694
(S's\x08\x00\x00\x00Overview'
tRp4127
I00
S'http://www.web2py.com/book/default/chapter/03'
p4128
tp4129
a(g3694
(S's\x08\x00\x00\x00The Core'
tRp4130
I00
S'http://www.web2py.com/book/default/chapter/04'
p4131
tp4132
a(g3694
(S's\t\x00\x00\x00The Views'
tRp4133
I00
S'http://www.web2py.com/book/default/chapter/05'
p4134
tp4135
a(g3694
(S's\x08\x00\x00\x00Database'
tRp4136
I00
S'http://www.web2py.com/book/default/chapter/06'
p4137
tp4138
a(g3694
(S's\x14\x00\x00\x00Forms and Validators'
tRp4139
I00
S'http://www.web2py.com/book/default/chapter/07'
p4140
tp4141
a(g3694
(S's\r\x00\x00\x00Email and SMS'
tRp4142
I00
S'http://www.web2py.com/book/default/chapter/08'
p4143
tp4144
a(g3694
(S's\x0e\x00\x00\x00Access Control'
tRp4145
I00
S'http://www.web2py.com/book/default/chapter/09'
p4146
tp4147
a(g3694
(S's\x08\x00\x00\x00Services'
tRp4148
I00
S'http://www.web2py.com/book/default/chapter/10'
p4149
tp4150
a(g3694
(S's\x0c\x00\x00\x00Ajax Recipes'
tRp4151
I00
S'http://www.web2py.com/book/default/chapter/11'
p4152
tp4153
a(g3694
(S's\x16\x00\x00\x00Components and Plugins'
tRp4154
I00
S'http://www.web2py.com/book/default/chapter/12'
p4155
tp4156
a(g3694
(S's\x12\x00\x00\x00Deployment Recipes'
tRp4157
I00
S'http://www.web2py.com/book/default/chapter/13'
p4158
tp4159
a(g3694
(S's\r\x00\x00\x00Other Recipes'
tRp4160
I00
S'http://www.web2py.com/book/default/chapter/14'
p4161
tp4162
a(g3694
(S's\r\x00\x00\x00Buy this book'
tRp4163
I00
S'http://stores.lulu.com/web2py'
p4164
tp4165
aasbasbasbasbasbasbasbag49
(g65
g51
NtRp4166
(dp4167
g54
(dp4168
sg63
g3808
sg56
(lp4169
g49
(g70
g51
NtRp4170
(dp4171
g54
(dp4172
sg63
g4166
sg56
(lp4173
g49
(g50
g51
NtRp4174
(dp4175
g54
(dp4176
g62
I2
ssg63
g4170
sg56
(lp4177
g49
(g58
g51
NtRp4178
(dp4179
g54
(dp4180
g62
I1
ssg63
Nsg56
(lp4181
g49
(g65
g51
NtRp4182
(dp4183
g54
(dp4184
sg63
g4178
sg56
(lp4185
g49
(g70
g51
NtRp4186
(dp4187
g54
(dp4188
sg63
g4182
sg56
(lp4189
g49
(g50
g51
NtRp4190
(dp4191
g54
(dp4192
g62
I1
ssg63
g4186
sg56
(lp4193
g3694
(S's\t\x00\x00\x00Community'
tRp4194
asbasbasbag49
(g65
g51
NtRp4195
(dp4196
g54
(dp4197
sg63
g4178
sg56
(lp4198
g49
(g70
g51
NtRp4199
(dp4200
g54
(dp4201
sg63
g4195
sg56
(lp4202
g49
(g50
g51
NtRp4203
(dp4204
g54
(dp4205
g62
I1
ssg63
g4199
sg56
(lp4206
I00
asbasbasbag49
(g65
g51
NtRp4207
(dp4208
g54
(dp4209
sg63
g4178
sg56
(lp4210
g49
(g70
g51
NtRp4211
(dp4212
g54
(dp4213
sg63
g4207
sg56
(lp4214
g49
(g50
g51
NtRp4215
(dp4216
g54
(dp4217
g62
I1
ssg63
g4211
sg56
(lp4218
Nasbasbasbag49
(g65
g51
NtRp4219
(dp4220
g54
(dp4221
sg63
g4178
sg56
(lp4222
g49
(g70
g51
NtRp4223
(dp4224
g54
(dp4225
sg63
g4219
sg56
(lp4226
g49
(g50
g51
NtRp4227
(dp4228
g54
(dp4229
g62
I1
ssg63
g4223
sg56
(lp4230
(lp4231
(g3694
(S's\x06\x00\x00\x00Groups'
tRp4232
I00
S'http://www.web2py.com/examples/default/usergroups'
p4233
tp4234
a(g3694
(S's\x07\x00\x00\x00Twitter'
tRp4235
I00
S'http://twitter.com/web2py'
p4236
tp4237
a(g3694
(S's\t\x00\x00\x00Live Chat'
tRp4238
I00
S'http://webchat.freenode.net/?channels=web2py'
p4239
tp4240
aasbasbasbasbasbasbasbag49
(g65
g51
NtRp4241
(dp4242
g54
(dp4243
sg63
g3808
sg56
(lp4244
g49
(g70
g51
NtRp4245
(dp4246
g54
(dp4247
sg63
g4241
sg56
(lp4248
g49
(g50
g51
NtRp4249
(dp4250
g54
(dp4251
g62
I2
ssg63
g4245
sg56
(lp4252
g49
(g58
g51
NtRp4253
(dp4254
g54
(dp4255
g62
I1
ssg63
Nsg56
(lp4256
g49
(g65
g51
NtRp4257
(dp4258
g54
(dp4259
sg63
g4253
sg56
(lp4260
g49
(g70
g51
NtRp4261
(dp4262
g54
(dp4263
sg63
g4257
sg56
(lp4264
g49
(g50
g51
NtRp4265
(dp4266
g54
(dp4267
g62
I1
ssg63
g4261
sg56
(lp4268
g3694
(S's\x07\x00\x00\x00Plugins'
tRp4269
asbasbasbag49
(g65
g51
NtRp4270
(dp4271
g54
(dp4272
sg63
g4253
sg56
(lp4273
g49
(g70
g51
NtRp4274
(dp4275
g54
(dp4276
sg63
g4270
sg56
(lp4277
g49
(g50
g51
NtRp4278
(dp4279
g54
(dp4280
g62
I1
ssg63
g4274
sg56
(lp4281
I00
asbasbasbag49
(g65
g51
NtRp4282
(dp4283
g54
(dp4284
sg63
g4253
sg56
(lp4285
g49
(g70
g51
NtRp4286
(dp4287
g54
(dp4288
sg63
g4282
sg56
(lp4289
g49
(g50
g51
NtRp4290
(dp4291
g54
(dp4292
g62
I1
ssg63
g4286
sg56
(lp4293
Nasbasbasbag49
(g65
g51
NtRp4294
(dp4295
g54
(dp4296
sg63
g4253
sg56
(lp4297
g49
(g70
g51
NtRp4298
(dp4299
g54
(dp4300
sg63
g4294
sg56
(lp4301
g49
(g50
g51
NtRp4302
(dp4303
g54
(dp4304
g62
I1
ssg63
g4298
sg56
(lp4305
(lp4306
(S'plugin_wiki'
p4307
I00
S'http://web2py.com/examples/default/download'
p4308
tp4309
a(g3694
(S's\r\x00\x00\x00Other Plugins'
tRp4310
I00
g4040
tp4311
a(g3694
(S's\x0e\x00\x00\x00Layout Plugins'
tRp4312
I00
g4043
tp4313
aasbasbasbasbasbasbasbasbasbasbasbasbasbasbasbasbasbasbasbag49
(g65
g51
NtRp4314
(dp4315
g54
(dp4316
sg63
g3158
sg56
(lp4317
g49
(g70
g51
NtRp4318
(dp4319
g54
(dp4320
g74
g75
ssg63
g4314
sg56
(lp4321
S'meta'
p4322
asbag49
(g70
g51
NtRp4323
(dp4324
g54
(dp4325
g81
g82
ssg63
g4314
sg56
(lp4326
S':'
asbag49
(g70
g51
NtRp4327
(dp4328
g54
(dp4329
sg63
g4314
sg56
(lp4330
g49
(g50
g51
NtRp4331
(dp4332
g54
(dp4333
g62
I5
ssg63
g4327
sg56
(lp4334
g49
(g58
g51
NtRp4335
(dp4336
g54
(dp4337
g62
I4
ssg63
Nsg56
(lp4338
g49
(g65
g51
NtRp4339
(dp4340
g54
(dp4341
sg63
g4335
sg56
(lp4342
g49
(g70
g51
NtRp4343
(dp4344
g54
(dp4345
g74
g75
ssg63
g4339
sg56
(lp4346
S'author'
p4347
asbag49
(g70
g51
NtRp4348
(dp4349
g54
(dp4350
g81
g82
ssg63
g4339
sg56
(lp4351
S':'
asbag49
(g70
g51
NtRp4352
(dp4353
g54
(dp4354
sg63
g4339
sg56
(lp4355
g49
(g50
g51
NtRp4356
(dp4357
g54
(dp4358
g62
I4
ssg63
g4352
sg56
(lp4359
S'William Lyon <lyonwj@gmail.cmo>'
p4360
asbasbasbag49
(g65
g51
NtRp4361
(dp4362
g54
(dp4363
sg63
g4335
sg56
(lp4364
g49
(g70
g51
NtRp4365
(dp4366
g54
(dp4367
g74
g75
ssg63
g4361
sg56
(lp4368
S'copyright'
p4369
asbag49
(g70
g51
NtRp4370
(dp4371
g54
(dp4372
g81
g82
ssg63
g4361
sg56
(lp4373
S':'
asbag49
(g70
g51
NtRp4374
(dp4375
g54
(dp4376
sg63
g4361
sg56
(lp4377
g49
(g50
g51
NtRp4378
(dp4379
g54
(dp4380
g62
I4
ssg63
g4374
sg56
(lp4381
S'Copyright William Lyon 2012'
p4382
asbasbasbag49
(g65
g51
NtRp4383
(dp4384
g54
(dp4385
sg63
g4335
sg56
(lp4386
g49
(g70
g51
NtRp4387
(dp4388
g54
(dp4389
g74
g75
ssg63
g4383
sg56
(lp4390
S'description'
p4391
asbag49
(g70
g51
NtRp4392
(dp4393
g54
(dp4394
g81
g82
ssg63
g4383
sg56
(lp4395
S':'
asbag49
(g70
g51
NtRp4396
(dp4397
g54
(dp4398
sg63
g4383
sg56
(lp4399
g49
(g50
g51
NtRp4400
(dp4401
g54
(dp4402
g62
I4
ssg63
g4396
sg56
(lp4403
S'Autonomous Trading Agent Using Natural Language Processing Of News Headlines'
p4404
asbasbasbag49
(g65
g51
NtRp4405
(dp4406
g54
(dp4407
sg63
g4335
sg56
(lp4408
g49
(g70
g51
NtRp4409
(dp4410
g54
(dp4411
g74
g75
ssg63
g4405
sg56
(lp4412
S'generator'
p4413
asbag49
(g70
g51
NtRp4414
(dp4415
g54
(dp4416
g81
g82
ssg63
g4405
sg56
(lp4417
S':'
asbag49
(g70
g51
NtRp4418
(dp4419
g54
(dp4420
sg63
g4405
sg56
(lp4421
g49
(g50
g51
NtRp4422
(dp4423
g54
(dp4424
g62
I4
ssg63
g4418
sg56
(lp4425
S'Web2py Web Framework'
p4426
asbasbasbag49
(g65
g51
NtRp4427
(dp4428
g54
(dp4429
sg63
g4335
sg56
(lp4430
g49
(g70
g51
NtRp4431
(dp4432
g54
(dp4433
g74
g75
ssg63
g4427
sg56
(lp4434
S'keywords'
p4435
asbag49
(g70
g51
NtRp4436
(dp4437
g54
(dp4438
g81
g82
ssg63
g4427
sg56
(lp4439
S':'
asbag49
(g70
g51
NtRp4440
(dp4441
g54
(dp4442
sg63
g4427
sg56
(lp4443
g49
(g50
g51
NtRp4444
(dp4445
g54
(dp4446
g62
I4
ssg63
g4440
sg56
(lp4447
S'python, AI, natural language processing'
p4448
asbasbasbasbasbasbasbag49
(g65
g51
NtRp4449
(dp4450
g54
(dp4451
sg63
g3158
sg56
(lp4452
g49
(g70
g51
NtRp4453
(dp4454
g54
(dp4455
g74
g75
ssg63
g4449
sg56
(lp4456
S'postprocessing'
p4457
asbag49
(g70
g51
NtRp4458
(dp4459
g54
(dp4460
g81
g82
ssg63
g4449
sg56
(lp4461
S':'
asbag49
(g70
g51
NtRp4462
(dp4463
g54
(dp4464
sg63
g4449
sg56
(lp4465
g49
(g50
g51
NtRp4466
(dp4467
g54
(dp4468
g62
I5
ssg63
g4462
sg56
(lp4469
g49
(g58
g51
NtRp4470
(dp4471
g54
(dp4472
g62
I4
ssg63
Nsg56
(lp4473
sbasbasbasbag49
(g65
g51
NtRp4474
(dp4475
g54
(dp4476
sg63
g3158
sg56
(lp4477
g49
(g70
g51
NtRp4478
(dp4479
g54
(dp4480
g74
g75
ssg63
g4474
sg56
(lp4481
S'session_file'
p4482
asbag49
(g70
g51
NtRp4483
(dp4484
g54
(dp4485
g81
g82
ssg63
g4474
sg56
(lp4486
S':'
asbag49
(g70
g51
NtRp4487
(dp4488
g54
(dp4489
sg63
g4474
sg56
(lp4490
g49
(g50
g51
NtRp4491
(dp4492
g54
(dp4493
g62
I5
ssg63
g4487
sg56
(lp4494
S"<open file '/Users/lyonwj/Developer/web2py/web2py.app/Contents/Resources/applications/NewzTrader/sessions/127.0.0.1-dc37d44a-b370-4a05-93c0-3b2861a0fbee', mode 'rb+' at 0x9f1b8d8>"
p4495
asbasbasbag49
(g65
g51
NtRp4496
(dp4497
g54
(dp4498
sg63
g3158
sg56
(lp4499
g49
(g70
g51
NtRp4500
(dp4501
g54
(dp4502
g74
g75
ssg63
g4496
sg56
(lp4503
S'session_filename'
p4504
asbag49
(g70
g51
NtRp4505
(dp4506
g54
(dp4507
g81
g82
ssg63
g4496
sg56
(lp4508
S':'
asbag49
(g70
g51
NtRp4509
(dp4510
g54
(dp4511
sg63
g4496
sg56
(lp4512
g49
(g50
g51
NtRp4513
(dp4514
g54
(dp4515
g62
I5
ssg63
g4509
sg56
(lp4516
S'/Users/lyonwj/Developer/web2py/web2py.app/Contents/Resources/applications/NewzTrader/sessions/127.0.0.1-dc37d44a-b370-4a05-93c0-3b2861a0fbee'
p4517
asbasbasbag49
(g65
g51
NtRp4518
(dp4519
g54
(dp4520
sg63
g3158
sg56
(lp4521
g49
(g70
g51
NtRp4522
(dp4523
g54
(dp4524
g74
g75
ssg63
g4518
sg56
(lp4525
S'session_id'
p4526
asbag49
(g70
g51
NtRp4527
(dp4528
g54
(dp4529
g81
g82
ssg63
g4518
sg56
(lp4530
S':'
asbag49
(g70
g51
NtRp4531
(dp4532
g54
(dp4533
sg63
g4518
sg56
(lp4534
g49
(g50
g51
NtRp4535
(dp4536
g54
(dp4537
g62
I5
ssg63
g4531
sg56
(lp4538
S'127.0.0.1-dc37d44a-b370-4a05-93c0-3b2861a0fbee'
p4539
asbasbasbag49
(g65
g51
NtRp4540
(dp4541
g54
(dp4542
sg63
g3158
sg56
(lp4543
g49
(g70
g51
NtRp4544
(dp4545
g54
(dp4546
g74
g75
ssg63
g4540
sg56
(lp4547
S'session_id_name'
p4548
asbag49
(g70
g51
NtRp4549
(dp4550
g54
(dp4551
g81
g82
ssg63
g4540
sg56
(lp4552
S':'
asbag49
(g70
g51
NtRp4553
(dp4554
g54
(dp4555
sg63
g4540
sg56
(lp4556
g49
(g50
g51
NtRp4557
(dp4558
g54
(dp4559
g62
I5
ssg63
g4553
sg56
(lp4560
g3215
asbasbasbag49
(g65
g51
NtRp4561
(dp4562
g54
(dp4563
sg63
g3158
sg56
(lp4564
g49
(g70
g51
NtRp4565
(dp4566
g54
(dp4567
g74
g75
ssg63
g4561
sg56
(lp4568
S'session_locked'
p4569
asbag49
(g70
g51
NtRp4570
(dp4571
g54
(dp4572
g81
g82
ssg63
g4561
sg56
(lp4573
S':'
asbag49
(g70
g51
NtRp4574
(dp4575
g54
(dp4576
sg63
g4561
sg56
(lp4577
g49
(g50
g51
NtRp4578
(dp4579
g54
(dp4580
g62
I5
ssg63
g4574
sg56
(lp4581
g1774
asbasbasbag49
(g65
g51
NtRp4582
(dp4583
g54
(dp4584
sg63
g3158
sg56
(lp4585
g49
(g70
g51
NtRp4586
(dp4587
g54
(dp4588
g74
g75
ssg63
g4582
sg56
(lp4589
S'session_new'
p4590
asbag49
(g70
g51
NtRp4591
(dp4592
g54
(dp4593
g81
g82
ssg63
g4582
sg56
(lp4594
S':'
asbag49
(g70
g51
NtRp4595
(dp4596
g54
(dp4597
sg63
g4582
sg56
(lp4598
g49
(g50
g51
NtRp4599
(dp4600
g54
(dp4601
g62
I5
ssg63
g4595
sg56
(lp4602
g92
asbasbasbag49
(g65
g51
NtRp4603
(dp4604
g54
(dp4605
sg63
g3158
sg56
(lp4606
g49
(g70
g51
NtRp4607
(dp4608
g54
(dp4609
g74
g75
ssg63
g4603
sg56
(lp4610
S'status'
p4611
asbag49
(g70
g51
NtRp4612
(dp4613
g54
(dp4614
g81
g82
ssg63
g4603
sg56
(lp4615
S':'
asbag49
(g70
g51
NtRp4616
(dp4617
g54
(dp4618
sg63
g4603
sg56
(lp4619
g49
(g50
g51
NtRp4620
(dp4621
g54
(dp4622
g62
I5
ssg63
g4616
sg56
(lp4623
S'200'
p4624
asbasbasbag49
(g65
g51
NtRp4625
(dp4626
g54
(dp4627
sg63
g3158
sg56
(lp4628
g49
(g70
g51
NtRp4629
(dp4630
g54
(dp4631
g74
g75
ssg63
g4625
sg56
(lp4632
S'subtitle'
p4633
asbag49
(g70
g51
NtRp4634
(dp4635
g54
(dp4636
g81
g82
ssg63
g4625
sg56
(lp4637
S':'
asbag49
(g70
g51
NtRp4638
(dp4639
g54
(dp4640
sg63
g4625
sg56
(lp4641
g49
(g50
g51
NtRp4642
(dp4643
g54
(dp4644
g62
I5
ssg63
g4638
sg56
(lp4645
g3694
(S'sL\x00\x00\x00Autonomous Trading Agent Using Natural Language Processing Of News Headlines'
tRp4646
asbasbasbag49
(g65
g51
NtRp4647
(dp4648
g54
(dp4649
sg63
g3158
sg56
(lp4650
g49
(g70
g51
NtRp4651
(dp4652
g54
(dp4653
g74
g75
ssg63
g4647
sg56
(lp4654
S'title'
p4655
asbag49
(g70
g51
NtRp4656
(dp4657
g54
(dp4658
g81
g82
ssg63
g4647
sg56
(lp4659
S':'
asbag49
(g70
g51
NtRp4660
(dp4661
g54
(dp4662
sg63
g4647
sg56
(lp4663
g49
(g50
g51
NtRp4664
(dp4665
g54
(dp4666
g62
I5
ssg63
g4660
sg56
(lp4667
S'NewzTrader'
p4668
asbasbasbag49
(g65
g51
NtRp4669
(dp4670
g54
(dp4671
sg63
g3158
sg56
(lp4672
g49
(g70
g51
NtRp4673
(dp4674
g54
(dp4675
g74
g75
ssg63
g4669
sg56
(lp4676
g2438
asbag49
(g70
g51
NtRp4677
(dp4678
g54
(dp4679
g81
g82
ssg63
g4669
sg56
(lp4680
S':'
asbag49
(g70
g51
NtRp4681
(dp4682
g54
(dp4683
sg63
g4669
sg56
(lp4684
g49
(g50
g51
NtRp4685
(dp4686
g54
(dp4687
g62
I5
ssg63
g4681
sg56
(lp4688
g2451
asbasbasbag49
(g65
g51
NtRp4689
(dp4690
g54
(dp4691
sg63
g3158
sg56
(lp4692
g49
(g70
g51
NtRp4693
(dp4694
g54
(dp4695
g74
g75
ssg63
g4689
sg56
(lp4696
S'view'
p4697
asbag49
(g70
g51
NtRp4698
(dp4699
g54
(dp4700
g81
g82
ssg63
g4689
sg56
(lp4701
S':'
asbag49
(g70
g51
NtRp4702
(dp4703
g54
(dp4704
sg63
g4689
sg56
(lp4705
g49
(g50
g51
NtRp4706
(dp4707
g54
(dp4708
g62
I5
ssg63
g4702
sg56
(lp4709
S'default/index.html'
p4710
asbasbasbasbasbsS'locals'
p4711
(dp4712
S'fromlist'
p4713
S"('etree',)"
p4714
sS'name'
p4715
S"'lxml'"
p4716
sg62
S'-1'
p4717
sS'self'
p4718
S'<gluon.custom_import._Web2pyImporter object at 0x7524a70>'
p4719
sS'globals'
p4720
S"{'A': <class 'gluon.html.A'>, 'Auth': <class 'gluon.tools.Auth'>, 'B': <class 'gluon.html.B'>, 'BEAUTIFY': <class 'gluon.html.BEAUTIFY'>, 'BODY': <class 'gluon.html.BODY'>, 'BR': <class 'gluon.html.BR'>, 'BUTTON': <class 'gluon.html.BUTTON'>, 'CAT': <class 'gluon.html.CAT'>, 'CENTER': <class 'gluon.html.CENTER'>, 'CLEANUP': <class 'gluon.validators.CLEANUP'>, ...}"
p4721
sg4711
S"{'A': <class 'gluon.html.A'>, 'Auth': <class 'gluon.tools.Auth'>, 'B': <class 'gluon.html.B'>, 'BEAUTIFY': <class 'gluon.html.BEAUTIFY'>, 'BODY': <class 'gluon.html.BODY'>, 'BR': <class 'gluon.html.BR'>, 'BUTTON': <class 'gluon.html.BUTTON'>, 'CAT': <class 'gluon.html.CAT'>, 'CENTER': <class 'gluon.html.CENTER'>, 'CLEANUP': <class 'gluon.validators.CLEANUP'>, ...}"
p4722
sssS'traceback'
p4723
S'Traceback (most recent call last):\n  File "gluon/restricted.py", line 205, in restricted\n  File "/Users/lyonwj/Developer/web2py/web2py.app/Contents/Resources/applications/NewzTrader/controllers/default.py", line 11, in <module>\n  File "gluon/custom_import.py", line 293, in __call__\n  File "gluon/custom_import.py", line 78, in __call__\nImportError: No module named lxml\n'
p4724
s.