(dp1
S'output'
p2
S"<type 'exceptions.SyntaxError'> invalid syntax (index.html, line 94)"
p3
sS'layer'
p4
S'/home/lyonwj/webapps/web2py/web2py/applications/NewzTrader/views/default/index.html'
p5
sS'code'
p6
S'left_sidebar_enabled,right_sidebar_enabled=False,True\nresponse.write(\'\\n\', escape=False)\nresponse.write(\'<!DOCTYPE html>\\n<!-- paulirish.com/2008/conditional-stylesheets-vs-css-hacks-answer-neither/ -->\\n<!--[if lt IE 7]><html class="ie ie6 ie-lte9 ie-lte8 ie-lte7 no-js" lang="\', escape=False)\nresponse.write(T.accepted_language or \'en\')\nresponse.write(\'"> <![endif]-->\\n<!--[if IE 7]><html class="ie ie7 ie-lte9 ie-lte8 ie-lte7 no-js" lang="\', escape=False)\nresponse.write(T.accepted_language or \'en\')\nresponse.write(\'"> <![endif]-->\\n<!--[if IE 8]><html class="ie ie8 ie-lte9 ie-lte8 no-js" lang="\', escape=False)\nresponse.write(T.accepted_language or \'en\')\nresponse.write(\'"> <![endif]-->\\n<!--[if IE 9]><html class="ie9 ie-lte9 no-js" lang="\', escape=False)\nresponse.write(T.accepted_language or \'en\')\nresponse.write(\'"> <![endif]-->\\n<!--[if (gt IE 9)|!(IE)]><!--> <html class="no-js" lang="\', escape=False)\nresponse.write(T.accepted_language or \'en\')\nresponse.write(\'"> <!--<![endif]-->\\n<head>\\n  <meta charset="utf-8" />\\n  <!-- www.phpied.com/conditional-comments-block-downloads/ -->\\n  <!-- Always force latest IE rendering engine\\n\\t   (even in intranet) & Chrome Frame\\n\\t   Remove this if you use the .htaccess -->\\n  <!--[if IE]>\\n    <meta http-equiv="X-UA-Compatible" content="IE=edge\', escape=False)\nresponse.write(not request.is_local and \',chrome=1\' or \'\')\nresponse.write(\'">\\n  <![endif]-->\\n  \\n  <title>\', escape=False)\nresponse.write(response.title or request.application)\nresponse.write(\'</title>\\n  \\n  <!-- http://dev.w3.org/html5/markup/meta.name.html -->\\n  <meta name="application-name" content="\', escape=False)\nresponse.write(request.application)\nresponse.write(\'" />\\n  \\n  <!-- Speaking of Google, don\\\'t forget to set your site up:\\n\\t   http://google.com/webmasters -->\\n  <meta name="google-site-verification" content="" />\\n\\n  <!--  Mobile Viewport Fix\\n\\t  j.mp/mobileviewport & davidbcalhoun.com/2010/viewport-metatag\\n\\t  device-width: Occupy full width of the screen in its current orientation\\n\\t  initial-scale = 1.0 retains dimensions instead of zooming out if page height > device height\\n\\t  user-scalable = yes allows the user to zoom in -->\\n  <meta name="viewport" content="width=device-width, initial-scale=1.0, user-scalable=yes">\\n  \\n  <!-- Place favicon.ico and apple-touch-icon.png in the root of your domain and delete these references -->\\n  <link rel="shortcut icon" href="\', escape=False)\nresponse.write(URL(\'static\',\'favicon.ico\'))\nresponse.write(\'" type="image/x-icon">\\n  <link rel="apple-touch-icon" href="\', escape=False)\nresponse.write(URL(\'static\',\'favicon.png\'))\nresponse.write(\'">\\n\\n  <!-- All JavaScript at the bottom, except for Modernizr which enables \\n\\t   HTML5 elements & feature detects -->\\n  <script src="\', escape=False)\nresponse.write(URL(\'static\',\'js/modernizr.custom.js\'))\nresponse.write(\'"></script>  \\n\\n  <!-- include stylesheets -->\\n  \', escape=False)\nresponse.files.append(URL(\'static\',\'css/skeleton.css\'))\nresponse.files.append(URL(\'static\',\'css/web2py.css\'))\nif response.menu:\n    response.files.append(URL(\'static\',\'css/superfish.css\'))\n    response.files.append(URL(\'static\',\'js/superfish.js\'))\n    pass\nresponse.write(\'\\n\\n  \', escape=False)\nresponse.write(\'<script type="text/javascript"><!--\\n    // These variables are used by the web2py_ajax_init function in web2py_ajax.js (which is loaded below).\\n    var w2p_ajax_confirm_message = "\', escape=False)\nresponse.write(T(\'Are you sure you want to delete this object?\'))\nresponse.write(\'";\\n    var w2p_ajax_date_format = "\', escape=False)\nresponse.write(T(\'%Y-%m-%d\'))\nresponse.write(\'";\\n    var w2p_ajax_datetime_format = "\', escape=False)\nresponse.write(T(\'%Y-%m-%d %H:%M:%S\'))\nresponse.write(\'";\\n    //--></script>\\n\', escape=False)\nresponse.files.insert(0,URL(\'static\',\'js/jquery.js\'))\nresponse.files.insert(1,URL(\'static\',\'css/calendar.css\'))\nresponse.files.insert(2,URL(\'static\',\'js/calendar.js\'))\nresponse.files.insert(3,URL(\'static\',\'js/web2py.js\'))\nresponse.include_meta()\nresponse.include_files()\nresponse.write(\'\\n\', escape=False)\nresponse.write(\'\\n\\n  \', escape=False)\nif response.menu:\n    response.write(\'\\n  <script type="text/javascript">\\n    jQuery(function(){ jQuery(\\\'ul.sf-menu\\\').supersubs({minWidth:12,maxWidth:30,extraWidth:3}).superfish(); });\\n  </script>\\n  \', escape=False)\n    pass\nresponse.write(\'\\n\\n  \', escape=False)\n# using sidebars need to know what sidebar you want to use\nleft_sidebar_enabled = globals().get(\'left_sidebar_enabled\',False)\nright_sidebar_enabled = globals().get(\'right_sidebar_enabled\',False)\nmiddle_columns = {0:\'sixteen\',1:\'twelve\',2:\'eight\'}[\n(left_sidebar_enabled and 1 or 0)+(right_sidebar_enabled and 1 or 0)]\nresponse.write(\'\\n\\n  <!-- uncomment here to load jquery-ui\\n  <link rel="stylesheet" href="http://ajax.googleapis.com/ajax/libs/jqueryui/1.8.16/themes/base/jquery-ui.css" type="text/css" media="all" />\\n  <script src="http://ajax.googleapis.com/ajax/libs/jqueryui/1.8.16/jquery-ui.min.js" type="text/javascript"></script>\\n  uncomment to load jquery-ui //-->\\n</head>\\n<body>\\n  <div class="wrapper"><!-- for sticky footer -->\\n  \\n    <div class="topbar">\\n      <div class="container">    \\n        <div class="sixteen columns">\\n          <div id="navbar">\', escape=False)\nresponse.write(\'auth\' in globals() and auth.navbar(separators=(\' \',\' | \',\'\')))\nresponse.write(\'</div>\\n          \', escape=False)\nis_mobile=request.user_agent().is_mobile\nresponse.write(\'\\n\\t  \', escape=False)\nif response.menu:\n    response.write(\'\\n          <div id="menu">\\n             \', escape=False)\n    response.write(MENU(response.menu, _class=\'mobile-menu\' if is_mobile else \'sf-menu\',mobile=is_mobile))\n    response.write(\'\\n          </div>\\n          \', escape=False)\n    pass\nresponse.write(\'\\n        </div>\\n      </div>\\n    </div><!-- topbar -->\\n    \\n    <div class="flash">\', escape=False)\nresponse.write(response.flash or \'\')\nresponse.write(\'</div>\\n    \\n    <div class="header">\\n      <div class="container">         \\n        <div class="sixteen columns">\\n          <h1 class="remove-bottom" style="margin-top: .5em;">\\n          \', escape=False)\nresponse.write(response.title or request.application)\nresponse.write(\'\\n          </h1>\\n          <h5>\', escape=False)\nresponse.write(response.subtitle or \'\')\nresponse.write(\'</h5>\\n        </div>\\n        <div class="sixteen columns">\\n          <div class="statusbar clearfix">\\n            \', escape=False)\nresponse.write(\'\\n            <div class="breadcrumbs">\', escape=False)\nresponse.write(request.function.replace(\'_\', \' \').title())\nresponse.write(\'</div>\\n            \', escape=False)\nresponse.write(\'\\n            <!-- AddToAny BEGIN -->\\n            <div style="float:right; padding-top: .25em;" class="a2a_kit a2a_default_style">\\n            <a class="a2a_dd" href="http://www.addtoany.com/share_save">Share</a></div>\\n            <script type="text/javascript" src="http://static.addtoany.com/menu/page.js"></script>\\n            <!-- AddToAny END -->\\n          </div>\\n        </div>\\n      </div>\\n    </div>\\n\\n    <div class="main">\\n      <div class="container">                 \\n        \', escape=False)\nif left_sidebar_enabled:\n    response.write(\'\\n        <div class="four columns left-sidebar">\\n          \', escape=False)\n    response.write(\'\\n          <h3>Left Sidebar</h3>\\n          <p></p>\\n          \', escape=False)\n    response.write(\'\\n        </div>\\n        \', escape=False)\n    pass\nresponse.write(\'\\n        \\n        <div class="\', escape=False)\nresponse.write(middle_columns)\nresponse.write(\' columns center">\\n          \', escape=False)\nresponse.write(\'\\n          \', escape=False)\nresponse.write(\'\\n\\n\', escape=False)\n#if \'message\' in globals():\nresponse.write(\'\\n<h3>\', escape=False)\nresponse.write(message)\nresponse.write(\'</h3>\\n\\n<h4/>\', escape=False)\nresponse.write(T(\'How did you get here?\'))\nresponse.write(\'</h4>\\n\\n\\n\', escape=False)\nelse:\n    response.write(\'\\n\', escape=False)\n    response.write(BEAUTIFY(response._vars))\n    response.write(\'\\n\', escape=False)\n    pass\nresponse.write(\'\\n\\n\', escape=False)\nresponse.write(\'\\n\', escape=False)\nresponse.write(\'\\n          \', escape=False)\nresponse.write(\'\\n        </div>\\n        \\n        \', escape=False)\nif right_sidebar_enabled:\n    response.write(\'\\n        <div class="four columns">\\n          \', escape=False)\n    response.write(\'\\n\', escape=False)\n    response.write(A(T("Disclaimer"), _href=URL(\'NewzTrader\',\'default\',\'disclaimer\'), _class=\'button\',\n    _style=\'margin-top: 1em;\'))\n    response.write(\'\\n\', escape=False)\n    response.write(A(T("Today\'s Newz"), _href=URL(\'NewzTrader\', \'default\', \'newz\'), _class=\'button\', _style=\'margin-top: lem;\'))\n    response.write(\'\\n\', escape=False)\n    response.write(A(T("Visualizations"), _href=URL(\'NewzTrader\', \'defaullt\', \'visual\'), _class=\'button\', _style=\'margin-top: lem;\'))\n    response.write(\'\\n\\n\', escape=False)\n    response.write(\'\\n        </div>    \\n        \', escape=False)\n    pass\nresponse.write(\'\\n        \\n      </div><!-- container -->\\n    </div><!-- main -->\\n    \\n    <div class="push"></div>\\n  </div><!-- wrapper -->\\n\\n  <div class="footer">\\n    <div class="container">    \\n      <div class="sixteen columns">\\n        \', escape=False)\nresponse.write(\' <!-- this is default footer -->\\n        <div class="footer-content clearfix">\\n          <div class="copyright">\', escape=False)\nresponse.write(T(\'Copyright\'))\nresponse.write(\' &#169; 2011</div>\\n          <div style="float: right;">\\n            <a href="http://www.web2py.com/">\\n            <img style="padding-bottom: 0;" src="\', escape=False)\nresponse.write(URL(\'static\',\'images/poweredby.png\'))\nresponse.write(\'"/>\\n            </a>\\n          </div>\\n        </div>\\n        \', escape=False)\nresponse.write(\'\\t\\n      </div>\\n    </div><!-- container -->\\n  </div><!-- footer -->\\n  \\n  <!--[if lt IE 7 ]>\\n\\t<script src="\', escape=False)\nresponse.write(URL(\'static\',\'js/dd_belatedpng.js\'))\nresponse.write(\'"></script>\\n\\t<script> DD_belatedPNG.fix(\\\'img, .png_bg\\\'); //fix any <img> or .png_bg background-images </script>\\n\\t<![endif]-->\\n  \', escape=False)\nif response.google_analytics_id:\n    response.write(\'<script type="text/javascript"> var _gaq = _gaq || []; _gaq.push([\\\'_setAccount\\\', \\\'\', escape=False)\n    response.write(response.google_analytics_id)\n    response.write("\']); _gaq.push([\'_trackPageview\']); (function() { var ga = document.createElement(\'script\'); ga.type = \'text/javascript\'; ga.async = true; ga.src = (\'https:\' == document.location.protocol ? \'https://ssl\' : \'http://www\') + \'.google-analytics.com/ga.js\'; var s = document.getElementsByTagName(\'script\')[0]; s.parentNode.insertBefore(ga, s); })(); </script> ", escape=False)\n    pass\nresponse.write(\'\\n</body>\\n</html>\\n\', escape=False)'
p7
sS'snapshot'
p8
(dp9
S'exception'
p10
(dp11
S'__getslice__'
p12
S"<method-wrapper '__getslice__' of exceptions.SyntaxError object>"
p13
sS'text'
p14
S"'else:\\n'"
p15
sS'__str__'
p16
S"<method-wrapper '__str__' of exceptions.SyntaxError object>"
p17
sS'__reduce__'
p18
S'<built-in method __reduce__ of exceptions.SyntaxError object>'
p19
sS'__dict__'
p20
S'{}'
p21
sS'__sizeof__'
p22
S'<built-in method __sizeof__ of exceptions.SyntaxError object>'
p23
sS'__init__'
p24
S"<method-wrapper '__init__' of exceptions.SyntaxError object>"
p25
sS'__setattr__'
p26
S"<method-wrapper '__setattr__' of exceptions.SyntaxError object>"
p27
sS'__reduce_ex__'
p28
S'<built-in method __reduce_ex__ of exceptions.SyntaxError object>'
p29
sS'__new__'
p30
S'<built-in method __new__ of type object>'
p31
sS'__format__'
p32
S'<built-in method __format__ of exceptions.SyntaxError object>'
p33
sS'__class__'
p34
S"<type 'exceptions.SyntaxError'>"
p35
sS'filename'
p36
S"'/home/lyonwj/webapps/web2py/web2py/applications/NewzTrader/views/default/index.html'"
p37
sS'lineno'
p38
S'94'
p39
sS'msg'
p40
S"'invalid syntax'"
p41
sS'__doc__'
p42
S"'Invalid syntax.'"
p43
sS'__getitem__'
p44
S"<method-wrapper '__getitem__' of exceptions.SyntaxError object>"
p45
sS'__setstate__'
p46
S'<built-in method __setstate__ of exceptions.SyntaxError object>'
p47
sS'__getattribute__'
p48
S"<method-wrapper '__getattribute__' of exceptions.SyntaxError object>"
p49
sS'print_file_and_line'
p50
S'None'
p51
sS'args'
p52
S"('invalid syntax', ('/home/lyonwj/webapps/web2py/web2py/applications/NewzTrader/views/default/index.html', 94, 4, 'else:\\n'))"
p53
sS'__subclasshook__'
p54
S'<built-in method __subclasshook__ of type object>'
p55
sS'offset'
p56
S'4'
sS'__unicode__'
p57
S'<built-in method __unicode__ of exceptions.SyntaxError object>'
p58
sS'__delattr__'
p59
S"<method-wrapper '__delattr__' of exceptions.SyntaxError object>"
p60
sS'__repr__'
p61
S"<method-wrapper '__repr__' of exceptions.SyntaxError object>"
p62
sS'__hash__'
p63
S"<method-wrapper '__hash__' of exceptions.SyntaxError object>"
p64
ssS'evalue'
p65
S'invalid syntax (index.html, line 94)'
p66
sS'request'
p67
ccopy_reg
_reconstructor
p68
(cgluon.html
BEAUTIFY
p69
c__builtin__
object
p70
NtRp71
(dp72
S'attributes'
p73
(dp74
sS'components'
p75
(lp76
g68
(cgluon.html
TABLE
p77
g70
NtRp78
(dp79
g73
(dp80
S'level'
p81
I5
ssS'parent'
p82
Nsg75
(lp83
g68
(cgluon.html
TR
p84
g70
NtRp85
(dp86
g73
(dp87
sg82
g78
sg75
(lp88
g68
(cgluon.html
TD
p89
g70
NtRp90
(dp91
g73
(dp92
S'_style'
p93
S'font-weight:bold;vertical-align:top'
p94
ssg82
g85
sg75
(lp95
S'ajax'
p96
asbag68
(g89
g70
NtRp97
(dp98
g73
(dp99
S'_valign'
p100
S'top'
p101
ssg82
g85
sg75
(lp102
S':'
asbag68
(g89
g70
NtRp103
(dp104
g73
(dp105
sg82
g85
sg75
(lp106
g68
(g69
g70
NtRp107
(dp108
g73
(dp109
g81
I5
ssg82
g103
sg75
(lp110
S'False'
p111
asbasbasbag68
(g84
g70
NtRp112
(dp113
g73
(dp114
sg82
g78
sg75
(lp115
g68
(g89
g70
NtRp116
(dp117
g73
(dp118
g93
g94
ssg82
g112
sg75
(lp119
S'application'
p120
asbag68
(g89
g70
NtRp121
(dp122
g73
(dp123
g100
g101
ssg82
g112
sg75
(lp124
S':'
asbag68
(g89
g70
NtRp125
(dp126
g73
(dp127
sg82
g112
sg75
(lp128
g68
(g69
g70
NtRp129
(dp130
g73
(dp131
g81
I5
ssg82
g125
sg75
(lp132
S'NewzTrader'
p133
asbasbasbag68
(g84
g70
NtRp134
(dp135
g73
(dp136
sg82
g78
sg75
(lp137
g68
(g89
g70
NtRp138
(dp139
g73
(dp140
g93
g94
ssg82
g134
sg75
(lp141
g52
asbag68
(g89
g70
NtRp142
(dp143
g73
(dp144
g100
g101
ssg82
g134
sg75
(lp145
S':'
asbag68
(g89
g70
NtRp146
(dp147
g73
(dp148
sg82
g134
sg75
(lp149
g68
(g69
g70
NtRp150
(dp151
g73
(dp152
g81
I5
ssg82
g146
sg75
(lp153
g68
(g77
g70
NtRp154
(dp155
g73
(dp156
g81
I4
ssg82
Nsg75
(lp157
sbasbasbasbag68
(g84
g70
NtRp158
(dp159
g73
(dp160
sg82
g78
sg75
(lp161
g68
(g89
g70
NtRp162
(dp163
g73
(dp164
g93
g94
ssg82
g158
sg75
(lp165
S'body'
p166
asbag68
(g89
g70
NtRp167
(dp168
g73
(dp169
g100
g101
ssg82
g158
sg75
(lp170
S':'
asbag68
(g89
g70
NtRp171
(dp172
g73
(dp173
sg82
g158
sg75
(lp174
g68
(g69
g70
NtRp175
(dp176
g73
(dp177
g81
I5
ssg82
g171
sg75
(lp178
S'<cStringIO.StringO object at 0x7fb8d8b0d9d0>'
p179
asbasbasbag68
(g84
g70
NtRp180
(dp181
g73
(dp182
sg82
g78
sg75
(lp183
g68
(g89
g70
NtRp184
(dp185
g73
(dp186
g93
g94
ssg82
g180
sg75
(lp187
S'client'
p188
asbag68
(g89
g70
NtRp189
(dp190
g73
(dp191
g100
g101
ssg82
g180
sg75
(lp192
S':'
asbag68
(g89
g70
NtRp193
(dp194
g73
(dp195
sg82
g180
sg75
(lp196
g68
(g69
g70
NtRp197
(dp198
g73
(dp199
g81
I5
ssg82
g193
sg75
(lp200
S'184.166.90.89'
p201
asbasbasbag68
(g84
g70
NtRp202
(dp203
g73
(dp204
sg82
g78
sg75
(lp205
g68
(g89
g70
NtRp206
(dp207
g73
(dp208
g93
g94
ssg82
g202
sg75
(lp209
S'controller'
p210
asbag68
(g89
g70
NtRp211
(dp212
g73
(dp213
g100
g101
ssg82
g202
sg75
(lp214
S':'
asbag68
(g89
g70
NtRp215
(dp216
g73
(dp217
sg82
g202
sg75
(lp218
g68
(g69
g70
NtRp219
(dp220
g73
(dp221
g81
I5
ssg82
g215
sg75
(lp222
S'default'
p223
asbasbasbag68
(g84
g70
NtRp224
(dp225
g73
(dp226
sg82
g78
sg75
(lp227
g68
(g89
g70
NtRp228
(dp229
g73
(dp230
g93
g94
ssg82
g224
sg75
(lp231
S'cookies'
p232
asbag68
(g89
g70
NtRp233
(dp234
g73
(dp235
g100
g101
ssg82
g224
sg75
(lp236
S':'
asbag68
(g89
g70
NtRp237
(dp238
g73
(dp239
sg82
g224
sg75
(lp240
g68
(g69
g70
NtRp241
(dp242
g73
(dp243
g81
I5
ssg82
g237
sg75
(lp244
g68
(g77
g70
NtRp245
(dp246
g73
(dp247
g81
I4
ssg82
Nsg75
(lp248
g68
(g84
g70
NtRp249
(dp250
g73
(dp251
sg82
g245
sg75
(lp252
g68
(g89
g70
NtRp253
(dp254
g73
(dp255
g93
g94
ssg82
g249
sg75
(lp256
S'session_id_admin'
p257
asbag68
(g89
g70
NtRp258
(dp259
g73
(dp260
g100
g101
ssg82
g249
sg75
(lp261
S':'
asbag68
(g89
g70
NtRp262
(dp263
g73
(dp264
sg82
g249
sg75
(lp265
g68
(g69
g70
NtRp266
(dp267
g73
(dp268
g81
I4
ssg82
g262
sg75
(lp269
g68
(g77
g70
NtRp270
(dp271
g73
(dp272
g81
I3
ssg82
Nsg75
(lp273
g68
(g84
g70
NtRp274
(dp275
g73
(dp276
sg82
g270
sg75
(lp277
g68
(g89
g70
NtRp278
(dp279
g73
(dp280
g93
g94
ssg82
g274
sg75
(lp281
S'comment'
p282
asbag68
(g89
g70
NtRp283
(dp284
g73
(dp285
g100
g101
ssg82
g274
sg75
(lp286
S':'
asbag68
(g89
g70
NtRp287
(dp288
g73
(dp289
sg82
g274
sg75
(lp290
g68
(g69
g70
NtRp291
(dp292
g73
(dp293
g81
I3
ssg82
g287
sg75
(lp294
S''
asbasbasbag68
(g84
g70
NtRp295
(dp296
g73
(dp297
sg82
g270
sg75
(lp298
g68
(g89
g70
NtRp299
(dp300
g73
(dp301
g93
g94
ssg82
g295
sg75
(lp302
S'domain'
p303
asbag68
(g89
g70
NtRp304
(dp305
g73
(dp306
g100
g101
ssg82
g295
sg75
(lp307
S':'
asbag68
(g89
g70
NtRp308
(dp309
g73
(dp310
sg82
g295
sg75
(lp311
g68
(g69
g70
NtRp312
(dp313
g73
(dp314
g81
I3
ssg82
g308
sg75
(lp315
S''
asbasbasbag68
(g84
g70
NtRp316
(dp317
g73
(dp318
sg82
g270
sg75
(lp319
g68
(g89
g70
NtRp320
(dp321
g73
(dp322
g93
g94
ssg82
g316
sg75
(lp323
S'expires'
p324
asbag68
(g89
g70
NtRp325
(dp326
g73
(dp327
g100
g101
ssg82
g316
sg75
(lp328
S':'
asbag68
(g89
g70
NtRp329
(dp330
g73
(dp331
sg82
g316
sg75
(lp332
g68
(g69
g70
NtRp333
(dp334
g73
(dp335
g81
I3
ssg82
g329
sg75
(lp336
S''
asbasbasbag68
(g84
g70
NtRp337
(dp338
g73
(dp339
sg82
g270
sg75
(lp340
g68
(g89
g70
NtRp341
(dp342
g73
(dp343
g93
g94
ssg82
g337
sg75
(lp344
S'httponly'
p345
asbag68
(g89
g70
NtRp346
(dp347
g73
(dp348
g100
g101
ssg82
g337
sg75
(lp349
S':'
asbag68
(g89
g70
NtRp350
(dp351
g73
(dp352
sg82
g337
sg75
(lp353
g68
(g69
g70
NtRp354
(dp355
g73
(dp356
g81
I3
ssg82
g350
sg75
(lp357
S''
asbasbasbag68
(g84
g70
NtRp358
(dp359
g73
(dp360
sg82
g270
sg75
(lp361
g68
(g89
g70
NtRp362
(dp363
g73
(dp364
g93
g94
ssg82
g358
sg75
(lp365
S'max-age'
p366
asbag68
(g89
g70
NtRp367
(dp368
g73
(dp369
g100
g101
ssg82
g358
sg75
(lp370
S':'
asbag68
(g89
g70
NtRp371
(dp372
g73
(dp373
sg82
g358
sg75
(lp374
g68
(g69
g70
NtRp375
(dp376
g73
(dp377
g81
I3
ssg82
g371
sg75
(lp378
S''
asbasbasbag68
(g84
g70
NtRp379
(dp380
g73
(dp381
sg82
g270
sg75
(lp382
g68
(g89
g70
NtRp383
(dp384
g73
(dp385
g93
g94
ssg82
g379
sg75
(lp386
S'path'
p387
asbag68
(g89
g70
NtRp388
(dp389
g73
(dp390
g100
g101
ssg82
g379
sg75
(lp391
S':'
asbag68
(g89
g70
NtRp392
(dp393
g73
(dp394
sg82
g379
sg75
(lp395
g68
(g69
g70
NtRp396
(dp397
g73
(dp398
g81
I3
ssg82
g392
sg75
(lp399
S''
asbasbasbag68
(g84
g70
NtRp400
(dp401
g73
(dp402
sg82
g270
sg75
(lp403
g68
(g89
g70
NtRp404
(dp405
g73
(dp406
g93
g94
ssg82
g400
sg75
(lp407
S'secure'
p408
asbag68
(g89
g70
NtRp409
(dp410
g73
(dp411
g100
g101
ssg82
g400
sg75
(lp412
S':'
asbag68
(g89
g70
NtRp413
(dp414
g73
(dp415
sg82
g400
sg75
(lp416
g68
(g69
g70
NtRp417
(dp418
g73
(dp419
g81
I3
ssg82
g413
sg75
(lp420
S''
asbasbasbag68
(g84
g70
NtRp421
(dp422
g73
(dp423
sg82
g270
sg75
(lp424
g68
(g89
g70
NtRp425
(dp426
g73
(dp427
g93
g94
ssg82
g421
sg75
(lp428
S'version'
p429
asbag68
(g89
g70
NtRp430
(dp431
g73
(dp432
g100
g101
ssg82
g421
sg75
(lp433
S':'
asbag68
(g89
g70
NtRp434
(dp435
g73
(dp436
sg82
g421
sg75
(lp437
g68
(g69
g70
NtRp438
(dp439
g73
(dp440
g81
I3
ssg82
g434
sg75
(lp441
S''
asbasbasbasbasbasbasbag68
(g84
g70
NtRp442
(dp443
g73
(dp444
sg82
g245
sg75
(lp445
g68
(g89
g70
NtRp446
(dp447
g73
(dp448
g93
g94
ssg82
g442
sg75
(lp449
S'session_id_init'
p450
asbag68
(g89
g70
NtRp451
(dp452
g73
(dp453
g100
g101
ssg82
g442
sg75
(lp454
S':'
asbag68
(g89
g70
NtRp455
(dp456
g73
(dp457
sg82
g442
sg75
(lp458
g68
(g69
g70
NtRp459
(dp460
g73
(dp461
g81
I4
ssg82
g455
sg75
(lp462
g68
(g77
g70
NtRp463
(dp464
g73
(dp465
g81
I3
ssg82
Nsg75
(lp466
g68
(g84
g70
NtRp467
(dp468
g73
(dp469
sg82
g463
sg75
(lp470
g68
(g89
g70
NtRp471
(dp472
g73
(dp473
g93
g94
ssg82
g467
sg75
(lp474
g282
asbag68
(g89
g70
NtRp475
(dp476
g73
(dp477
g100
g101
ssg82
g467
sg75
(lp478
S':'
asbag68
(g89
g70
NtRp479
(dp480
g73
(dp481
sg82
g467
sg75
(lp482
g68
(g69
g70
NtRp483
(dp484
g73
(dp485
g81
I3
ssg82
g479
sg75
(lp486
S''
asbasbasbag68
(g84
g70
NtRp487
(dp488
g73
(dp489
sg82
g463
sg75
(lp490
g68
(g89
g70
NtRp491
(dp492
g73
(dp493
g93
g94
ssg82
g487
sg75
(lp494
g303
asbag68
(g89
g70
NtRp495
(dp496
g73
(dp497
g100
g101
ssg82
g487
sg75
(lp498
S':'
asbag68
(g89
g70
NtRp499
(dp500
g73
(dp501
sg82
g487
sg75
(lp502
g68
(g69
g70
NtRp503
(dp504
g73
(dp505
g81
I3
ssg82
g499
sg75
(lp506
S''
asbasbasbag68
(g84
g70
NtRp507
(dp508
g73
(dp509
sg82
g463
sg75
(lp510
g68
(g89
g70
NtRp511
(dp512
g73
(dp513
g93
g94
ssg82
g507
sg75
(lp514
g324
asbag68
(g89
g70
NtRp515
(dp516
g73
(dp517
g100
g101
ssg82
g507
sg75
(lp518
S':'
asbag68
(g89
g70
NtRp519
(dp520
g73
(dp521
sg82
g507
sg75
(lp522
g68
(g69
g70
NtRp523
(dp524
g73
(dp525
g81
I3
ssg82
g519
sg75
(lp526
S''
asbasbasbag68
(g84
g70
NtRp527
(dp528
g73
(dp529
sg82
g463
sg75
(lp530
g68
(g89
g70
NtRp531
(dp532
g73
(dp533
g93
g94
ssg82
g527
sg75
(lp534
g345
asbag68
(g89
g70
NtRp535
(dp536
g73
(dp537
g100
g101
ssg82
g527
sg75
(lp538
S':'
asbag68
(g89
g70
NtRp539
(dp540
g73
(dp541
sg82
g527
sg75
(lp542
g68
(g69
g70
NtRp543
(dp544
g73
(dp545
g81
I3
ssg82
g539
sg75
(lp546
S''
asbasbasbag68
(g84
g70
NtRp547
(dp548
g73
(dp549
sg82
g463
sg75
(lp550
g68
(g89
g70
NtRp551
(dp552
g73
(dp553
g93
g94
ssg82
g547
sg75
(lp554
g366
asbag68
(g89
g70
NtRp555
(dp556
g73
(dp557
g100
g101
ssg82
g547
sg75
(lp558
S':'
asbag68
(g89
g70
NtRp559
(dp560
g73
(dp561
sg82
g547
sg75
(lp562
g68
(g69
g70
NtRp563
(dp564
g73
(dp565
g81
I3
ssg82
g559
sg75
(lp566
S''
asbasbasbag68
(g84
g70
NtRp567
(dp568
g73
(dp569
sg82
g463
sg75
(lp570
g68
(g89
g70
NtRp571
(dp572
g73
(dp573
g93
g94
ssg82
g567
sg75
(lp574
g387
asbag68
(g89
g70
NtRp575
(dp576
g73
(dp577
g100
g101
ssg82
g567
sg75
(lp578
S':'
asbag68
(g89
g70
NtRp579
(dp580
g73
(dp581
sg82
g567
sg75
(lp582
g68
(g69
g70
NtRp583
(dp584
g73
(dp585
g81
I3
ssg82
g579
sg75
(lp586
S''
asbasbasbag68
(g84
g70
NtRp587
(dp588
g73
(dp589
sg82
g463
sg75
(lp590
g68
(g89
g70
NtRp591
(dp592
g73
(dp593
g93
g94
ssg82
g587
sg75
(lp594
g408
asbag68
(g89
g70
NtRp595
(dp596
g73
(dp597
g100
g101
ssg82
g587
sg75
(lp598
S':'
asbag68
(g89
g70
NtRp599
(dp600
g73
(dp601
sg82
g587
sg75
(lp602
g68
(g69
g70
NtRp603
(dp604
g73
(dp605
g81
I3
ssg82
g599
sg75
(lp606
S''
asbasbasbag68
(g84
g70
NtRp607
(dp608
g73
(dp609
sg82
g463
sg75
(lp610
g68
(g89
g70
NtRp611
(dp612
g73
(dp613
g93
g94
ssg82
g607
sg75
(lp614
g429
asbag68
(g89
g70
NtRp615
(dp616
g73
(dp617
g100
g101
ssg82
g607
sg75
(lp618
S':'
asbag68
(g89
g70
NtRp619
(dp620
g73
(dp621
sg82
g607
sg75
(lp622
g68
(g69
g70
NtRp623
(dp624
g73
(dp625
g81
I3
ssg82
g619
sg75
(lp626
S''
asbasbasbasbasbasbasbag68
(g84
g70
NtRp627
(dp628
g73
(dp629
sg82
g245
sg75
(lp630
g68
(g89
g70
NtRp631
(dp632
g73
(dp633
g93
g94
ssg82
g627
sg75
(lp634
S'session_id_newztrader'
p635
asbag68
(g89
g70
NtRp636
(dp637
g73
(dp638
g100
g101
ssg82
g627
sg75
(lp639
S':'
asbag68
(g89
g70
NtRp640
(dp641
g73
(dp642
sg82
g627
sg75
(lp643
g68
(g69
g70
NtRp644
(dp645
g73
(dp646
g81
I4
ssg82
g640
sg75
(lp647
g68
(g77
g70
NtRp648
(dp649
g73
(dp650
g81
I3
ssg82
Nsg75
(lp651
g68
(g84
g70
NtRp652
(dp653
g73
(dp654
sg82
g648
sg75
(lp655
g68
(g89
g70
NtRp656
(dp657
g73
(dp658
g93
g94
ssg82
g652
sg75
(lp659
g282
asbag68
(g89
g70
NtRp660
(dp661
g73
(dp662
g100
g101
ssg82
g652
sg75
(lp663
S':'
asbag68
(g89
g70
NtRp664
(dp665
g73
(dp666
sg82
g652
sg75
(lp667
g68
(g69
g70
NtRp668
(dp669
g73
(dp670
g81
I3
ssg82
g664
sg75
(lp671
S''
asbasbasbag68
(g84
g70
NtRp672
(dp673
g73
(dp674
sg82
g648
sg75
(lp675
g68
(g89
g70
NtRp676
(dp677
g73
(dp678
g93
g94
ssg82
g672
sg75
(lp679
g303
asbag68
(g89
g70
NtRp680
(dp681
g73
(dp682
g100
g101
ssg82
g672
sg75
(lp683
S':'
asbag68
(g89
g70
NtRp684
(dp685
g73
(dp686
sg82
g672
sg75
(lp687
g68
(g69
g70
NtRp688
(dp689
g73
(dp690
g81
I3
ssg82
g684
sg75
(lp691
S''
asbasbasbag68
(g84
g70
NtRp692
(dp693
g73
(dp694
sg82
g648
sg75
(lp695
g68
(g89
g70
NtRp696
(dp697
g73
(dp698
g93
g94
ssg82
g692
sg75
(lp699
g324
asbag68
(g89
g70
NtRp700
(dp701
g73
(dp702
g100
g101
ssg82
g692
sg75
(lp703
S':'
asbag68
(g89
g70
NtRp704
(dp705
g73
(dp706
sg82
g692
sg75
(lp707
g68
(g69
g70
NtRp708
(dp709
g73
(dp710
g81
I3
ssg82
g704
sg75
(lp711
S''
asbasbasbag68
(g84
g70
NtRp712
(dp713
g73
(dp714
sg82
g648
sg75
(lp715
g68
(g89
g70
NtRp716
(dp717
g73
(dp718
g93
g94
ssg82
g712
sg75
(lp719
g345
asbag68
(g89
g70
NtRp720
(dp721
g73
(dp722
g100
g101
ssg82
g712
sg75
(lp723
S':'
asbag68
(g89
g70
NtRp724
(dp725
g73
(dp726
sg82
g712
sg75
(lp727
g68
(g69
g70
NtRp728
(dp729
g73
(dp730
g81
I3
ssg82
g724
sg75
(lp731
S''
asbasbasbag68
(g84
g70
NtRp732
(dp733
g73
(dp734
sg82
g648
sg75
(lp735
g68
(g89
g70
NtRp736
(dp737
g73
(dp738
g93
g94
ssg82
g732
sg75
(lp739
g366
asbag68
(g89
g70
NtRp740
(dp741
g73
(dp742
g100
g101
ssg82
g732
sg75
(lp743
S':'
asbag68
(g89
g70
NtRp744
(dp745
g73
(dp746
sg82
g732
sg75
(lp747
g68
(g69
g70
NtRp748
(dp749
g73
(dp750
g81
I3
ssg82
g744
sg75
(lp751
S''
asbasbasbag68
(g84
g70
NtRp752
(dp753
g73
(dp754
sg82
g648
sg75
(lp755
g68
(g89
g70
NtRp756
(dp757
g73
(dp758
g93
g94
ssg82
g752
sg75
(lp759
g387
asbag68
(g89
g70
NtRp760
(dp761
g73
(dp762
g100
g101
ssg82
g752
sg75
(lp763
S':'
asbag68
(g89
g70
NtRp764
(dp765
g73
(dp766
sg82
g752
sg75
(lp767
g68
(g69
g70
NtRp768
(dp769
g73
(dp770
g81
I3
ssg82
g764
sg75
(lp771
S''
asbasbasbag68
(g84
g70
NtRp772
(dp773
g73
(dp774
sg82
g648
sg75
(lp775
g68
(g89
g70
NtRp776
(dp777
g73
(dp778
g93
g94
ssg82
g772
sg75
(lp779
g408
asbag68
(g89
g70
NtRp780
(dp781
g73
(dp782
g100
g101
ssg82
g772
sg75
(lp783
S':'
asbag68
(g89
g70
NtRp784
(dp785
g73
(dp786
sg82
g772
sg75
(lp787
g68
(g69
g70
NtRp788
(dp789
g73
(dp790
g81
I3
ssg82
g784
sg75
(lp791
S''
asbasbasbag68
(g84
g70
NtRp792
(dp793
g73
(dp794
sg82
g648
sg75
(lp795
g68
(g89
g70
NtRp796
(dp797
g73
(dp798
g93
g94
ssg82
g792
sg75
(lp799
g429
asbag68
(g89
g70
NtRp800
(dp801
g73
(dp802
g100
g101
ssg82
g792
sg75
(lp803
S':'
asbag68
(g89
g70
NtRp804
(dp805
g73
(dp806
sg82
g792
sg75
(lp807
g68
(g69
g70
NtRp808
(dp809
g73
(dp810
g81
I3
ssg82
g804
sg75
(lp811
S''
asbasbasbasbasbasbasbasbasbasbasbag68
(g84
g70
NtRp812
(dp813
g73
(dp814
sg82
g78
sg75
(lp815
g68
(g89
g70
NtRp816
(dp817
g73
(dp818
g93
g94
ssg82
g812
sg75
(lp819
S'env'
p820
asbag68
(g89
g70
NtRp821
(dp822
g73
(dp823
g100
g101
ssg82
g812
sg75
(lp824
S':'
asbag68
(g89
g70
NtRp825
(dp826
g73
(dp827
sg82
g812
sg75
(lp828
g68
(g69
g70
NtRp829
(dp830
g73
(dp831
g81
I5
ssg82
g825
sg75
(lp832
g68
(g77
g70
NtRp833
(dp834
g73
(dp835
g81
I4
ssg82
Nsg75
(lp836
g68
(g84
g70
NtRp837
(dp838
g73
(dp839
sg82
g833
sg75
(lp840
g68
(g89
g70
NtRp841
(dp842
g73
(dp843
g93
g94
ssg82
g837
sg75
(lp844
S'app_folders'
p845
asbag68
(g89
g70
NtRp846
(dp847
g73
(dp848
g100
g101
ssg82
g837
sg75
(lp849
S':'
asbag68
(g89
g70
NtRp850
(dp851
g73
(dp852
sg82
g837
sg75
(lp853
g68
(g69
g70
NtRp854
(dp855
g73
(dp856
g81
I4
ssg82
g850
sg75
(lp857
S"set(['/home/lyonwj/webapps/web2py/web2py/applications/NewzTrader/', '/home/lyonwj/webapps/web2py/web2py/applications/init/'])"
p858
asbasbasbag68
(g84
g70
NtRp859
(dp860
g73
(dp861
sg82
g833
sg75
(lp862
g68
(g89
g70
NtRp863
(dp864
g73
(dp865
g93
g94
ssg82
g859
sg75
(lp866
S'applications_parent'
p867
asbag68
(g89
g70
NtRp868
(dp869
g73
(dp870
g100
g101
ssg82
g859
sg75
(lp871
S':'
asbag68
(g89
g70
NtRp872
(dp873
g73
(dp874
sg82
g859
sg75
(lp875
g68
(g69
g70
NtRp876
(dp877
g73
(dp878
g81
I4
ssg82
g872
sg75
(lp879
S'/home/lyonwj/webapps/web2py/web2py'
p880
asbasbasbag68
(g84
g70
NtRp881
(dp882
g73
(dp883
sg82
g833
sg75
(lp884
g68
(g89
g70
NtRp885
(dp886
g73
(dp887
g93
g94
ssg82
g881
sg75
(lp888
S'db_sessions'
p889
asbag68
(g89
g70
NtRp890
(dp891
g73
(dp892
g100
g101
ssg82
g881
sg75
(lp893
S':'
asbag68
(g89
g70
NtRp894
(dp895
g73
(dp896
sg82
g881
sg75
(lp897
g68
(g69
g70
NtRp898
(dp899
g73
(dp900
g81
I4
ssg82
g894
sg75
(lp901
S'set([])'
p902
asbasbasbag68
(g84
g70
NtRp903
(dp904
g73
(dp905
sg82
g833
sg75
(lp906
g68
(g89
g70
NtRp907
(dp908
g73
(dp909
g93
g94
ssg82
g903
sg75
(lp910
S'debugging'
p911
asbag68
(g89
g70
NtRp912
(dp913
g73
(dp914
g100
g101
ssg82
g903
sg75
(lp915
S':'
asbag68
(g89
g70
NtRp916
(dp917
g73
(dp918
sg82
g903
sg75
(lp919
g68
(g69
g70
NtRp920
(dp921
g73
(dp922
g81
I4
ssg82
g916
sg75
(lp923
g111
asbasbasbag68
(g84
g70
NtRp924
(dp925
g73
(dp926
sg82
g833
sg75
(lp927
g68
(g89
g70
NtRp928
(dp929
g73
(dp930
g93
g94
ssg82
g924
sg75
(lp931
S'document_root'
p932
asbag68
(g89
g70
NtRp933
(dp934
g73
(dp935
g100
g101
ssg82
g924
sg75
(lp936
S':'
asbag68
(g89
g70
NtRp937
(dp938
g73
(dp939
sg82
g924
sg75
(lp940
g68
(g69
g70
NtRp941
(dp942
g73
(dp943
g81
I4
ssg82
g937
sg75
(lp944
S'/home/lyonwj/webapps/web2py/htdocs'
p945
asbasbasbag68
(g84
g70
NtRp946
(dp947
g73
(dp948
sg82
g833
sg75
(lp949
g68
(g89
g70
NtRp950
(dp951
g73
(dp952
g93
g94
ssg82
g946
sg75
(lp953
S'gateway_interface'
p954
asbag68
(g89
g70
NtRp955
(dp956
g73
(dp957
g100
g101
ssg82
g946
sg75
(lp958
S':'
asbag68
(g89
g70
NtRp959
(dp960
g73
(dp961
sg82
g946
sg75
(lp962
g68
(g69
g70
NtRp963
(dp964
g73
(dp965
g81
I4
ssg82
g959
sg75
(lp966
S'CGI/1.1'
p967
asbasbasbag68
(g84
g70
NtRp968
(dp969
g73
(dp970
sg82
g833
sg75
(lp971
g68
(g89
g70
NtRp972
(dp973
g73
(dp974
g93
g94
ssg82
g968
sg75
(lp975
S'gluon_parent'
p976
asbag68
(g89
g70
NtRp977
(dp978
g73
(dp979
g100
g101
ssg82
g968
sg75
(lp980
S':'
asbag68
(g89
g70
NtRp981
(dp982
g73
(dp983
sg82
g968
sg75
(lp984
g68
(g69
g70
NtRp985
(dp986
g73
(dp987
g81
I4
ssg82
g981
sg75
(lp988
g880
asbasbasbag68
(g84
g70
NtRp989
(dp990
g73
(dp991
sg82
g833
sg75
(lp992
g68
(g89
g70
NtRp993
(dp994
g73
(dp995
g93
g94
ssg82
g989
sg75
(lp996
S'http_accept'
p997
asbag68
(g89
g70
NtRp998
(dp999
g73
(dp1000
g100
g101
ssg82
g989
sg75
(lp1001
S':'
asbag68
(g89
g70
NtRp1002
(dp1003
g73
(dp1004
sg82
g989
sg75
(lp1005
g68
(g69
g70
NtRp1006
(dp1007
g73
(dp1008
g81
I4
ssg82
g1002
sg75
(lp1009
S'text/html,application/xhtml+xml,application/xml;q=0.9,*/*;q=0.8'
p1010
asbasbasbag68
(g84
g70
NtRp1011
(dp1012
g73
(dp1013
sg82
g833
sg75
(lp1014
g68
(g89
g70
NtRp1015
(dp1016
g73
(dp1017
g93
g94
ssg82
g1011
sg75
(lp1018
S'http_accept_charset'
p1019
asbag68
(g89
g70
NtRp1020
(dp1021
g73
(dp1022
g100
g101
ssg82
g1011
sg75
(lp1023
S':'
asbag68
(g89
g70
NtRp1024
(dp1025
g73
(dp1026
sg82
g1011
sg75
(lp1027
g68
(g69
g70
NtRp1028
(dp1029
g73
(dp1030
g81
I4
ssg82
g1024
sg75
(lp1031
S'ISO-8859-1,utf-8;q=0.7,*;q=0.3'
p1032
asbasbasbag68
(g84
g70
NtRp1033
(dp1034
g73
(dp1035
sg82
g833
sg75
(lp1036
g68
(g89
g70
NtRp1037
(dp1038
g73
(dp1039
g93
g94
ssg82
g1033
sg75
(lp1040
S'http_accept_encoding'
p1041
asbag68
(g89
g70
NtRp1042
(dp1043
g73
(dp1044
g100
g101
ssg82
g1033
sg75
(lp1045
S':'
asbag68
(g89
g70
NtRp1046
(dp1047
g73
(dp1048
sg82
g1033
sg75
(lp1049
g68
(g69
g70
NtRp1050
(dp1051
g73
(dp1052
g81
I4
ssg82
g1046
sg75
(lp1053
S'gzip,deflate,sdch'
p1054
asbasbasbag68
(g84
g70
NtRp1055
(dp1056
g73
(dp1057
sg82
g833
sg75
(lp1058
g68
(g89
g70
NtRp1059
(dp1060
g73
(dp1061
g93
g94
ssg82
g1055
sg75
(lp1062
S'http_accept_language'
p1063
asbag68
(g89
g70
NtRp1064
(dp1065
g73
(dp1066
g100
g101
ssg82
g1055
sg75
(lp1067
S':'
asbag68
(g89
g70
NtRp1068
(dp1069
g73
(dp1070
sg82
g1055
sg75
(lp1071
g68
(g69
g70
NtRp1072
(dp1073
g73
(dp1074
g81
I4
ssg82
g1068
sg75
(lp1075
S'en-US,en;q=0.8'
p1076
asbasbasbag68
(g84
g70
NtRp1077
(dp1078
g73
(dp1079
sg82
g833
sg75
(lp1080
g68
(g89
g70
NtRp1081
(dp1082
g73
(dp1083
g93
g94
ssg82
g1077
sg75
(lp1084
S'http_connection'
p1085
asbag68
(g89
g70
NtRp1086
(dp1087
g73
(dp1088
g100
g101
ssg82
g1077
sg75
(lp1089
S':'
asbag68
(g89
g70
NtRp1090
(dp1091
g73
(dp1092
sg82
g1077
sg75
(lp1093
g68
(g69
g70
NtRp1094
(dp1095
g73
(dp1096
g81
I4
ssg82
g1090
sg75
(lp1097
S'close'
p1098
asbasbasbag68
(g84
g70
NtRp1099
(dp1100
g73
(dp1101
sg82
g833
sg75
(lp1102
g68
(g89
g70
NtRp1103
(dp1104
g73
(dp1105
g93
g94
ssg82
g1099
sg75
(lp1106
S'http_cookie'
p1107
asbag68
(g89
g70
NtRp1108
(dp1109
g73
(dp1110
g100
g101
ssg82
g1099
sg75
(lp1111
S':'
asbag68
(g89
g70
NtRp1112
(dp1113
g73
(dp1114
sg82
g1099
sg75
(lp1115
g68
(g69
g70
NtRp1116
(dp1117
g73
(dp1118
g81
I4
ssg82
g1112
sg75
(lp1119
S'session_id_newztrader=150.131.118.156-b3c924a2-4514-44dd-83e7-d6a94defa956; session_id_admin=150.131.118.156-9f4b28d6-5932-45d0-8c84-145047f85b81; session_id_init=184.166.72.218-7282a69a-9d94-4109-960c-e4cb8e4e116b'
p1120
asbasbasbag68
(g84
g70
NtRp1121
(dp1122
g73
(dp1123
sg82
g833
sg75
(lp1124
g68
(g89
g70
NtRp1125
(dp1126
g73
(dp1127
g93
g94
ssg82
g1121
sg75
(lp1128
S'http_forwarded_request_uri'
p1129
asbag68
(g89
g70
NtRp1130
(dp1131
g73
(dp1132
g100
g101
ssg82
g1121
sg75
(lp1133
S':'
asbag68
(g89
g70
NtRp1134
(dp1135
g73
(dp1136
sg82
g1121
sg75
(lp1137
g68
(g69
g70
NtRp1138
(dp1139
g73
(dp1140
g81
I4
ssg82
g1134
sg75
(lp1141
S'/NewzTrader'
p1142
asbasbasbag68
(g84
g70
NtRp1143
(dp1144
g73
(dp1145
sg82
g833
sg75
(lp1146
g68
(g89
g70
NtRp1147
(dp1148
g73
(dp1149
g93
g94
ssg82
g1143
sg75
(lp1150
S'http_host'
p1151
asbag68
(g89
g70
NtRp1152
(dp1153
g73
(dp1154
g100
g101
ssg82
g1143
sg75
(lp1155
S':'
asbag68
(g89
g70
NtRp1156
(dp1157
g73
(dp1158
sg82
g1143
sg75
(lp1159
g68
(g69
g70
NtRp1160
(dp1161
g73
(dp1162
g81
I4
ssg82
g1156
sg75
(lp1163
S'williamlyon.org'
p1164
asbasbasbag68
(g84
g70
NtRp1165
(dp1166
g73
(dp1167
sg82
g833
sg75
(lp1168
g68
(g89
g70
NtRp1169
(dp1170
g73
(dp1171
g93
g94
ssg82
g1165
sg75
(lp1172
S'http_http_x_forwarded_proto'
p1173
asbag68
(g89
g70
NtRp1174
(dp1175
g73
(dp1176
g100
g101
ssg82
g1165
sg75
(lp1177
S':'
asbag68
(g89
g70
NtRp1178
(dp1179
g73
(dp1180
sg82
g1165
sg75
(lp1181
g68
(g69
g70
NtRp1182
(dp1183
g73
(dp1184
g81
I4
ssg82
g1178
sg75
(lp1185
S'https'
p1186
asbasbasbag68
(g84
g70
NtRp1187
(dp1188
g73
(dp1189
sg82
g833
sg75
(lp1190
g68
(g89
g70
NtRp1191
(dp1192
g73
(dp1193
g93
g94
ssg82
g1187
sg75
(lp1194
S'http_https'
p1195
asbag68
(g89
g70
NtRp1196
(dp1197
g73
(dp1198
g100
g101
ssg82
g1187
sg75
(lp1199
S':'
asbag68
(g89
g70
NtRp1200
(dp1201
g73
(dp1202
sg82
g1187
sg75
(lp1203
g68
(g69
g70
NtRp1204
(dp1205
g73
(dp1206
g81
I4
ssg82
g1200
sg75
(lp1207
S'on'
p1208
asbasbasbag68
(g84
g70
NtRp1209
(dp1210
g73
(dp1211
sg82
g833
sg75
(lp1212
g68
(g89
g70
NtRp1213
(dp1214
g73
(dp1215
g93
g94
ssg82
g1209
sg75
(lp1216
S'http_user_agent'
p1217
asbag68
(g89
g70
NtRp1218
(dp1219
g73
(dp1220
g100
g101
ssg82
g1209
sg75
(lp1221
S':'
asbag68
(g89
g70
NtRp1222
(dp1223
g73
(dp1224
sg82
g1209
sg75
(lp1225
g68
(g69
g70
NtRp1226
(dp1227
g73
(dp1228
g81
I4
ssg82
g1222
sg75
(lp1229
S'Mozilla/5.0 (Macintosh; Intel Mac OS X 10_8_2) AppleWebKit/537.4 (KHTML, like Gecko) Chrome/22.0.1229.94 Safari/537.4'
p1230
asbasbasbag68
(g84
g70
NtRp1231
(dp1232
g73
(dp1233
sg82
g833
sg75
(lp1234
g68
(g89
g70
NtRp1235
(dp1236
g73
(dp1237
g93
g94
ssg82
g1231
sg75
(lp1238
S'http_x_forwarded_for'
p1239
asbag68
(g89
g70
NtRp1240
(dp1241
g73
(dp1242
g100
g101
ssg82
g1231
sg75
(lp1243
S':'
asbag68
(g89
g70
NtRp1244
(dp1245
g73
(dp1246
sg82
g1231
sg75
(lp1247
g68
(g69
g70
NtRp1248
(dp1249
g73
(dp1250
g81
I4
ssg82
g1244
sg75
(lp1251
g201
asbasbasbag68
(g84
g70
NtRp1252
(dp1253
g73
(dp1254
sg82
g833
sg75
(lp1255
g68
(g89
g70
NtRp1256
(dp1257
g73
(dp1258
g93
g94
ssg82
g1252
sg75
(lp1259
S'http_x_forwarded_host'
p1260
asbag68
(g89
g70
NtRp1261
(dp1262
g73
(dp1263
g100
g101
ssg82
g1252
sg75
(lp1264
S':'
asbag68
(g89
g70
NtRp1265
(dp1266
g73
(dp1267
sg82
g1252
sg75
(lp1268
g68
(g69
g70
NtRp1269
(dp1270
g73
(dp1271
g81
I4
ssg82
g1265
sg75
(lp1272
S'williamlyon.org'
p1273
asbasbasbag68
(g84
g70
NtRp1274
(dp1275
g73
(dp1276
sg82
g833
sg75
(lp1277
g68
(g89
g70
NtRp1278
(dp1279
g73
(dp1280
g93
g94
ssg82
g1274
sg75
(lp1281
S'http_x_forwarded_proto'
p1282
asbag68
(g89
g70
NtRp1283
(dp1284
g73
(dp1285
g100
g101
ssg82
g1274
sg75
(lp1286
S':'
asbag68
(g89
g70
NtRp1287
(dp1288
g73
(dp1289
sg82
g1274
sg75
(lp1290
g68
(g69
g70
NtRp1291
(dp1292
g73
(dp1293
g81
I4
ssg82
g1287
sg75
(lp1294
S'https'
p1295
asbasbasbag68
(g84
g70
NtRp1296
(dp1297
g73
(dp1298
sg82
g833
sg75
(lp1299
g68
(g89
g70
NtRp1300
(dp1301
g73
(dp1302
g93
g94
ssg82
g1296
sg75
(lp1303
S'http_x_forwarded_server'
p1304
asbag68
(g89
g70
NtRp1305
(dp1306
g73
(dp1307
g100
g101
ssg82
g1296
sg75
(lp1308
S':'
asbag68
(g89
g70
NtRp1309
(dp1310
g73
(dp1311
sg82
g1296
sg75
(lp1312
g68
(g69
g70
NtRp1313
(dp1314
g73
(dp1315
g81
I4
ssg82
g1309
sg75
(lp1316
S'williamlyon.org'
p1317
asbasbasbag68
(g84
g70
NtRp1318
(dp1319
g73
(dp1320
sg82
g833
sg75
(lp1321
g68
(g89
g70
NtRp1322
(dp1323
g73
(dp1324
g93
g94
ssg82
g1318
sg75
(lp1325
S'http_x_forwarded_ssl'
p1326
asbag68
(g89
g70
NtRp1327
(dp1328
g73
(dp1329
g100
g101
ssg82
g1318
sg75
(lp1330
S':'
asbag68
(g89
g70
NtRp1331
(dp1332
g73
(dp1333
sg82
g1318
sg75
(lp1334
g68
(g69
g70
NtRp1335
(dp1336
g73
(dp1337
g81
I4
ssg82
g1331
sg75
(lp1338
S'on'
p1339
asbasbasbag68
(g84
g70
NtRp1340
(dp1341
g73
(dp1342
sg82
g833
sg75
(lp1343
g68
(g89
g70
NtRp1344
(dp1345
g73
(dp1346
g93
g94
ssg82
g1340
sg75
(lp1347
S'https'
p1348
asbag68
(g89
g70
NtRp1349
(dp1350
g73
(dp1351
g100
g101
ssg82
g1340
sg75
(lp1352
S':'
asbag68
(g89
g70
NtRp1353
(dp1354
g73
(dp1355
sg82
g1340
sg75
(lp1356
g68
(g69
g70
NtRp1357
(dp1358
g73
(dp1359
g81
I4
ssg82
g1353
sg75
(lp1360
S'1'
asbasbasbag68
(g84
g70
NtRp1361
(dp1362
g73
(dp1363
sg82
g833
sg75
(lp1364
g68
(g89
g70
NtRp1365
(dp1366
g73
(dp1367
g93
g94
ssg82
g1361
sg75
(lp1368
S'is_jython'
p1369
asbag68
(g89
g70
NtRp1370
(dp1371
g73
(dp1372
g100
g101
ssg82
g1361
sg75
(lp1373
S':'
asbag68
(g89
g70
NtRp1374
(dp1375
g73
(dp1376
sg82
g1361
sg75
(lp1377
g68
(g69
g70
NtRp1378
(dp1379
g73
(dp1380
g81
I4
ssg82
g1374
sg75
(lp1381
g111
asbasbasbag68
(g84
g70
NtRp1382
(dp1383
g73
(dp1384
sg82
g833
sg75
(lp1385
g68
(g89
g70
NtRp1386
(dp1387
g73
(dp1388
g93
g94
ssg82
g1382
sg75
(lp1389
S'is_pypy'
p1390
asbag68
(g89
g70
NtRp1391
(dp1392
g73
(dp1393
g100
g101
ssg82
g1382
sg75
(lp1394
S':'
asbag68
(g89
g70
NtRp1395
(dp1396
g73
(dp1397
sg82
g1382
sg75
(lp1398
g68
(g69
g70
NtRp1399
(dp1400
g73
(dp1401
g81
I4
ssg82
g1395
sg75
(lp1402
g111
asbasbasbag68
(g84
g70
NtRp1403
(dp1404
g73
(dp1405
sg82
g833
sg75
(lp1406
g68
(g89
g70
NtRp1407
(dp1408
g73
(dp1409
g93
g94
ssg82
g1403
sg75
(lp1410
S'mod_wsgi_application_group'
p1411
asbag68
(g89
g70
NtRp1412
(dp1413
g73
(dp1414
g100
g101
ssg82
g1403
sg75
(lp1415
S':'
asbag68
(g89
g70
NtRp1416
(dp1417
g73
(dp1418
sg82
g1403
sg75
(lp1419
g68
(g69
g70
NtRp1420
(dp1421
g73
(dp1422
g81
I4
ssg82
g1416
sg75
(lp1423
S'web341.webfaction.com|'
p1424
asbasbasbag68
(g84
g70
NtRp1425
(dp1426
g73
(dp1427
sg82
g833
sg75
(lp1428
g68
(g89
g70
NtRp1429
(dp1430
g73
(dp1431
g93
g94
ssg82
g1425
sg75
(lp1432
S'mod_wsgi_callable_object'
p1433
asbag68
(g89
g70
NtRp1434
(dp1435
g73
(dp1436
g100
g101
ssg82
g1425
sg75
(lp1437
S':'
asbag68
(g89
g70
NtRp1438
(dp1439
g73
(dp1440
sg82
g1425
sg75
(lp1441
g68
(g69
g70
NtRp1442
(dp1443
g73
(dp1444
g81
I4
ssg82
g1438
sg75
(lp1445
S'application'
p1446
asbasbasbag68
(g84
g70
NtRp1447
(dp1448
g73
(dp1449
sg82
g833
sg75
(lp1450
g68
(g89
g70
NtRp1451
(dp1452
g73
(dp1453
g93
g94
ssg82
g1447
sg75
(lp1454
S'mod_wsgi_handler_script'
p1455
asbag68
(g89
g70
NtRp1456
(dp1457
g73
(dp1458
g100
g101
ssg82
g1447
sg75
(lp1459
S':'
asbag68
(g89
g70
NtRp1460
(dp1461
g73
(dp1462
sg82
g1447
sg75
(lp1463
g68
(g69
g70
NtRp1464
(dp1465
g73
(dp1466
g81
I4
ssg82
g1460
sg75
(lp1467
S''
asbasbasbag68
(g84
g70
NtRp1468
(dp1469
g73
(dp1470
sg82
g833
sg75
(lp1471
g68
(g89
g70
NtRp1472
(dp1473
g73
(dp1474
g93
g94
ssg82
g1468
sg75
(lp1475
S'mod_wsgi_input_chunked'
p1476
asbag68
(g89
g70
NtRp1477
(dp1478
g73
(dp1479
g100
g101
ssg82
g1468
sg75
(lp1480
S':'
asbag68
(g89
g70
NtRp1481
(dp1482
g73
(dp1483
sg82
g1468
sg75
(lp1484
g68
(g69
g70
NtRp1485
(dp1486
g73
(dp1487
g81
I4
ssg82
g1481
sg75
(lp1488
S'0'
asbasbasbag68
(g84
g70
NtRp1489
(dp1490
g73
(dp1491
sg82
g833
sg75
(lp1492
g68
(g89
g70
NtRp1493
(dp1494
g73
(dp1495
g93
g94
ssg82
g1489
sg75
(lp1496
S'mod_wsgi_listener_host'
p1497
asbag68
(g89
g70
NtRp1498
(dp1499
g73
(dp1500
g100
g101
ssg82
g1489
sg75
(lp1501
S':'
asbag68
(g89
g70
NtRp1502
(dp1503
g73
(dp1504
sg82
g1489
sg75
(lp1505
g68
(g69
g70
NtRp1506
(dp1507
g73
(dp1508
g81
I4
ssg82
g1502
sg75
(lp1509
S''
asbasbasbag68
(g84
g70
NtRp1510
(dp1511
g73
(dp1512
sg82
g833
sg75
(lp1513
g68
(g89
g70
NtRp1514
(dp1515
g73
(dp1516
g93
g94
ssg82
g1510
sg75
(lp1517
S'mod_wsgi_listener_port'
p1518
asbag68
(g89
g70
NtRp1519
(dp1520
g73
(dp1521
g100
g101
ssg82
g1510
sg75
(lp1522
S':'
asbag68
(g89
g70
NtRp1523
(dp1524
g73
(dp1525
sg82
g1510
sg75
(lp1526
g68
(g69
g70
NtRp1527
(dp1528
g73
(dp1529
g81
I4
ssg82
g1523
sg75
(lp1530
S'49632'
p1531
asbasbasbag68
(g84
g70
NtRp1532
(dp1533
g73
(dp1534
sg82
g833
sg75
(lp1535
g68
(g89
g70
NtRp1536
(dp1537
g73
(dp1538
g93
g94
ssg82
g1532
sg75
(lp1539
S'mod_wsgi_process_group'
p1540
asbag68
(g89
g70
NtRp1541
(dp1542
g73
(dp1543
g100
g101
ssg82
g1532
sg75
(lp1544
S':'
asbag68
(g89
g70
NtRp1545
(dp1546
g73
(dp1547
sg82
g1532
sg75
(lp1548
g68
(g69
g70
NtRp1549
(dp1550
g73
(dp1551
g81
I4
ssg82
g1545
sg75
(lp1552
S'web2py'
p1553
asbasbasbag68
(g84
g70
NtRp1554
(dp1555
g73
(dp1556
sg82
g833
sg75
(lp1557
g68
(g89
g70
NtRp1558
(dp1559
g73
(dp1560
g93
g94
ssg82
g1554
sg75
(lp1561
S'mod_wsgi_request_handler'
p1562
asbag68
(g89
g70
NtRp1563
(dp1564
g73
(dp1565
g100
g101
ssg82
g1554
sg75
(lp1566
S':'
asbag68
(g89
g70
NtRp1567
(dp1568
g73
(dp1569
sg82
g1554
sg75
(lp1570
g68
(g69
g70
NtRp1571
(dp1572
g73
(dp1573
g81
I4
ssg82
g1567
sg75
(lp1574
S'wsgi-script'
p1575
asbasbasbag68
(g84
g70
NtRp1576
(dp1577
g73
(dp1578
sg82
g833
sg75
(lp1579
g68
(g89
g70
NtRp1580
(dp1581
g73
(dp1582
g93
g94
ssg82
g1576
sg75
(lp1583
S'mod_wsgi_script_reloading'
p1584
asbag68
(g89
g70
NtRp1585
(dp1586
g73
(dp1587
g100
g101
ssg82
g1576
sg75
(lp1588
S':'
asbag68
(g89
g70
NtRp1589
(dp1590
g73
(dp1591
sg82
g1576
sg75
(lp1592
g68
(g69
g70
NtRp1593
(dp1594
g73
(dp1595
g81
I4
ssg82
g1589
sg75
(lp1596
S'1'
asbasbasbag68
(g84
g70
NtRp1597
(dp1598
g73
(dp1599
sg82
g833
sg75
(lp1600
g68
(g89
g70
NtRp1601
(dp1602
g73
(dp1603
g93
g94
ssg82
g1597
sg75
(lp1604
S'mod_wsgi_version'
p1605
asbag68
(g89
g70
NtRp1606
(dp1607
g73
(dp1608
g100
g101
ssg82
g1597
sg75
(lp1609
S':'
asbag68
(g89
g70
NtRp1610
(dp1611
g73
(dp1612
sg82
g1597
sg75
(lp1613
g68
(g69
g70
NtRp1614
(dp1615
g73
(dp1616
g81
I4
ssg82
g1610
sg75
(lp1617
g68
(g77
g70
NtRp1618
(dp1619
g73
(dp1620
g81
I3
ssg82
Nsg75
(lp1621
g68
(g84
g70
NtRp1622
(dp1623
g73
(dp1624
sg82
g1618
sg75
(lp1625
g68
(g89
g70
NtRp1626
(dp1627
g73
(dp1628
sg82
g1622
sg75
(lp1629
g68
(g69
g70
NtRp1630
(dp1631
g73
(dp1632
g81
I3
ssg82
g1626
sg75
(lp1633
S'3'
asbasbasbag68
(g84
g70
NtRp1634
(dp1635
g73
(dp1636
sg82
g1618
sg75
(lp1637
g68
(g89
g70
NtRp1638
(dp1639
g73
(dp1640
sg82
g1634
sg75
(lp1641
g68
(g69
g70
NtRp1642
(dp1643
g73
(dp1644
g81
I3
ssg82
g1638
sg75
(lp1645
S'3'
asbasbasbasbasbasbasbag68
(g84
g70
NtRp1646
(dp1647
g73
(dp1648
sg82
g833
sg75
(lp1649
g68
(g89
g70
NtRp1650
(dp1651
g73
(dp1652
g93
g94
ssg82
g1646
sg75
(lp1653
S'path_info'
p1654
asbag68
(g89
g70
NtRp1655
(dp1656
g73
(dp1657
g100
g101
ssg82
g1646
sg75
(lp1658
S':'
asbag68
(g89
g70
NtRp1659
(dp1660
g73
(dp1661
sg82
g1646
sg75
(lp1662
g68
(g69
g70
NtRp1663
(dp1664
g73
(dp1665
g81
I4
ssg82
g1659
sg75
(lp1666
S'/NewzTrader'
p1667
asbasbasbag68
(g84
g70
NtRp1668
(dp1669
g73
(dp1670
sg82
g833
sg75
(lp1671
g68
(g89
g70
NtRp1672
(dp1673
g73
(dp1674
g93
g94
ssg82
g1668
sg75
(lp1675
S'path_translated'
p1676
asbag68
(g89
g70
NtRp1677
(dp1678
g73
(dp1679
g100
g101
ssg82
g1668
sg75
(lp1680
S':'
asbag68
(g89
g70
NtRp1681
(dp1682
g73
(dp1683
sg82
g1668
sg75
(lp1684
g68
(g69
g70
NtRp1685
(dp1686
g73
(dp1687
g81
I4
ssg82
g1681
sg75
(lp1688
S'/home/lyonwj/webapps/web2py/web2py/wsgihandler.py/NewzTrader'
p1689
asbasbasbag68
(g84
g70
NtRp1690
(dp1691
g73
(dp1692
sg82
g833
sg75
(lp1693
g68
(g89
g70
NtRp1694
(dp1695
g73
(dp1696
g93
g94
ssg82
g1690
sg75
(lp1697
S'query_string'
p1698
asbag68
(g89
g70
NtRp1699
(dp1700
g73
(dp1701
g100
g101
ssg82
g1690
sg75
(lp1702
S':'
asbag68
(g89
g70
NtRp1703
(dp1704
g73
(dp1705
sg82
g1690
sg75
(lp1706
g68
(g69
g70
NtRp1707
(dp1708
g73
(dp1709
g81
I4
ssg82
g1703
sg75
(lp1710
S''
asbasbasbag68
(g84
g70
NtRp1711
(dp1712
g73
(dp1713
sg82
g833
sg75
(lp1714
g68
(g89
g70
NtRp1715
(dp1716
g73
(dp1717
g93
g94
ssg82
g1711
sg75
(lp1718
S'remote_addr'
p1719
asbag68
(g89
g70
NtRp1720
(dp1721
g73
(dp1722
g100
g101
ssg82
g1711
sg75
(lp1723
S':'
asbag68
(g89
g70
NtRp1724
(dp1725
g73
(dp1726
sg82
g1711
sg75
(lp1727
g68
(g69
g70
NtRp1728
(dp1729
g73
(dp1730
g81
I4
ssg82
g1724
sg75
(lp1731
S'127.0.0.1'
p1732
asbasbasbag68
(g84
g70
NtRp1733
(dp1734
g73
(dp1735
sg82
g833
sg75
(lp1736
g68
(g89
g70
NtRp1737
(dp1738
g73
(dp1739
g93
g94
ssg82
g1733
sg75
(lp1740
S'remote_port'
p1741
asbag68
(g89
g70
NtRp1742
(dp1743
g73
(dp1744
g100
g101
ssg82
g1733
sg75
(lp1745
S':'
asbag68
(g89
g70
NtRp1746
(dp1747
g73
(dp1748
sg82
g1733
sg75
(lp1749
g68
(g69
g70
NtRp1750
(dp1751
g73
(dp1752
g81
I4
ssg82
g1746
sg75
(lp1753
S'48708'
p1754
asbasbasbag68
(g84
g70
NtRp1755
(dp1756
g73
(dp1757
sg82
g833
sg75
(lp1758
g68
(g89
g70
NtRp1759
(dp1760
g73
(dp1761
g93
g94
ssg82
g1755
sg75
(lp1762
S'request_method'
p1763
asbag68
(g89
g70
NtRp1764
(dp1765
g73
(dp1766
g100
g101
ssg82
g1755
sg75
(lp1767
S':'
asbag68
(g89
g70
NtRp1768
(dp1769
g73
(dp1770
sg82
g1755
sg75
(lp1771
g68
(g69
g70
NtRp1772
(dp1773
g73
(dp1774
g81
I4
ssg82
g1768
sg75
(lp1775
S'GET'
p1776
asbasbasbag68
(g84
g70
NtRp1777
(dp1778
g73
(dp1779
sg82
g833
sg75
(lp1780
g68
(g89
g70
NtRp1781
(dp1782
g73
(dp1783
g93
g94
ssg82
g1777
sg75
(lp1784
S'request_uri'
p1785
asbag68
(g89
g70
NtRp1786
(dp1787
g73
(dp1788
g100
g101
ssg82
g1777
sg75
(lp1789
S':'
asbag68
(g89
g70
NtRp1790
(dp1791
g73
(dp1792
sg82
g1777
sg75
(lp1793
g68
(g69
g70
NtRp1794
(dp1795
g73
(dp1796
g81
I4
ssg82
g1790
sg75
(lp1797
S'/NewzTrader'
p1798
asbasbasbag68
(g84
g70
NtRp1799
(dp1800
g73
(dp1801
sg82
g833
sg75
(lp1802
g68
(g89
g70
NtRp1803
(dp1804
g73
(dp1805
g93
g94
ssg82
g1799
sg75
(lp1806
S'script_filename'
p1807
asbag68
(g89
g70
NtRp1808
(dp1809
g73
(dp1810
g100
g101
ssg82
g1799
sg75
(lp1811
S':'
asbag68
(g89
g70
NtRp1812
(dp1813
g73
(dp1814
sg82
g1799
sg75
(lp1815
g68
(g69
g70
NtRp1816
(dp1817
g73
(dp1818
g81
I4
ssg82
g1812
sg75
(lp1819
S'/home/lyonwj/webapps/web2py/web2py/wsgihandler.py'
p1820
asbasbasbag68
(g84
g70
NtRp1821
(dp1822
g73
(dp1823
sg82
g833
sg75
(lp1824
g68
(g89
g70
NtRp1825
(dp1826
g73
(dp1827
g93
g94
ssg82
g1821
sg75
(lp1828
S'script_name'
p1829
asbag68
(g89
g70
NtRp1830
(dp1831
g73
(dp1832
g100
g101
ssg82
g1821
sg75
(lp1833
S':'
asbag68
(g89
g70
NtRp1834
(dp1835
g73
(dp1836
sg82
g1821
sg75
(lp1837
g68
(g69
g70
NtRp1838
(dp1839
g73
(dp1840
g81
I4
ssg82
g1834
sg75
(lp1841
S''
asbasbasbag68
(g84
g70
NtRp1842
(dp1843
g73
(dp1844
sg82
g833
sg75
(lp1845
g68
(g89
g70
NtRp1846
(dp1847
g73
(dp1848
g93
g94
ssg82
g1842
sg75
(lp1849
S'server_addr'
p1850
asbag68
(g89
g70
NtRp1851
(dp1852
g73
(dp1853
g100
g101
ssg82
g1842
sg75
(lp1854
S':'
asbag68
(g89
g70
NtRp1855
(dp1856
g73
(dp1857
sg82
g1842
sg75
(lp1858
g68
(g69
g70
NtRp1859
(dp1860
g73
(dp1861
g81
I4
ssg82
g1855
sg75
(lp1862
S'127.0.0.1'
p1863
asbasbasbag68
(g84
g70
NtRp1864
(dp1865
g73
(dp1866
sg82
g833
sg75
(lp1867
g68
(g89
g70
NtRp1868
(dp1869
g73
(dp1870
g93
g94
ssg82
g1864
sg75
(lp1871
S'server_admin'
p1872
asbag68
(g89
g70
NtRp1873
(dp1874
g73
(dp1875
g100
g101
ssg82
g1864
sg75
(lp1876
S':'
asbag68
(g89
g70
NtRp1877
(dp1878
g73
(dp1879
sg82
g1864
sg75
(lp1880
g68
(g69
g70
NtRp1881
(dp1882
g73
(dp1883
g81
I4
ssg82
g1877
sg75
(lp1884
S'[no address given]'
p1885
asbasbasbag68
(g84
g70
NtRp1886
(dp1887
g73
(dp1888
sg82
g833
sg75
(lp1889
g68
(g89
g70
NtRp1890
(dp1891
g73
(dp1892
g93
g94
ssg82
g1886
sg75
(lp1893
S'server_name'
p1894
asbag68
(g89
g70
NtRp1895
(dp1896
g73
(dp1897
g100
g101
ssg82
g1886
sg75
(lp1898
S':'
asbag68
(g89
g70
NtRp1899
(dp1900
g73
(dp1901
sg82
g1886
sg75
(lp1902
g68
(g69
g70
NtRp1903
(dp1904
g73
(dp1905
g81
I4
ssg82
g1899
sg75
(lp1906
S'williamlyon.org'
p1907
asbasbasbag68
(g84
g70
NtRp1908
(dp1909
g73
(dp1910
sg82
g833
sg75
(lp1911
g68
(g89
g70
NtRp1912
(dp1913
g73
(dp1914
g93
g94
ssg82
g1908
sg75
(lp1915
S'server_port'
p1916
asbag68
(g89
g70
NtRp1917
(dp1918
g73
(dp1919
g100
g101
ssg82
g1908
sg75
(lp1920
S':'
asbag68
(g89
g70
NtRp1921
(dp1922
g73
(dp1923
sg82
g1908
sg75
(lp1924
g68
(g69
g70
NtRp1925
(dp1926
g73
(dp1927
g81
I4
ssg82
g1921
sg75
(lp1928
S'80'
p1929
asbasbasbag68
(g84
g70
NtRp1930
(dp1931
g73
(dp1932
sg82
g833
sg75
(lp1933
g68
(g89
g70
NtRp1934
(dp1935
g73
(dp1936
g93
g94
ssg82
g1930
sg75
(lp1937
S'server_protocol'
p1938
asbag68
(g89
g70
NtRp1939
(dp1940
g73
(dp1941
g100
g101
ssg82
g1930
sg75
(lp1942
S':'
asbag68
(g89
g70
NtRp1943
(dp1944
g73
(dp1945
sg82
g1930
sg75
(lp1946
g68
(g69
g70
NtRp1947
(dp1948
g73
(dp1949
g81
I4
ssg82
g1943
sg75
(lp1950
S'HTTP/1.0'
p1951
asbasbasbag68
(g84
g70
NtRp1952
(dp1953
g73
(dp1954
sg82
g833
sg75
(lp1955
g68
(g89
g70
NtRp1956
(dp1957
g73
(dp1958
g93
g94
ssg82
g1952
sg75
(lp1959
S'server_signature'
p1960
asbag68
(g89
g70
NtRp1961
(dp1962
g73
(dp1963
g100
g101
ssg82
g1952
sg75
(lp1964
S':'
asbag68
(g89
g70
NtRp1965
(dp1966
g73
(dp1967
sg82
g1952
sg75
(lp1968
g68
(g69
g70
NtRp1969
(dp1970
g73
(dp1971
g81
I4
ssg82
g1965
sg75
(lp1972
S''
asbasbasbag68
(g84
g70
NtRp1973
(dp1974
g73
(dp1975
sg82
g833
sg75
(lp1976
g68
(g89
g70
NtRp1977
(dp1978
g73
(dp1979
g93
g94
ssg82
g1973
sg75
(lp1980
S'server_software'
p1981
asbag68
(g89
g70
NtRp1982
(dp1983
g73
(dp1984
g100
g101
ssg82
g1973
sg75
(lp1985
S':'
asbag68
(g89
g70
NtRp1986
(dp1987
g73
(dp1988
sg82
g1973
sg75
(lp1989
g68
(g69
g70
NtRp1990
(dp1991
g73
(dp1992
g81
I4
ssg82
g1986
sg75
(lp1993
S'Apache/2.2.17 (Unix) mod_wsgi/3.3 Python/2.7.3'
p1994
asbasbasbag68
(g84
g70
NtRp1995
(dp1996
g73
(dp1997
sg82
g833
sg75
(lp1998
g68
(g89
g70
NtRp1999
(dp2000
g73
(dp2001
g93
g94
ssg82
g1995
sg75
(lp2002
S'web2py_path'
p2003
asbag68
(g89
g70
NtRp2004
(dp2005
g73
(dp2006
g100
g101
ssg82
g1995
sg75
(lp2007
S':'
asbag68
(g89
g70
NtRp2008
(dp2009
g73
(dp2010
sg82
g1995
sg75
(lp2011
g68
(g69
g70
NtRp2012
(dp2013
g73
(dp2014
g81
I4
ssg82
g2008
sg75
(lp2015
g880
asbasbasbag68
(g84
g70
NtRp2016
(dp2017
g73
(dp2018
sg82
g833
sg75
(lp2019
g68
(g89
g70
NtRp2020
(dp2021
g73
(dp2022
g93
g94
ssg82
g2016
sg75
(lp2023
S'web2py_version'
p2024
asbag68
(g89
g70
NtRp2025
(dp2026
g73
(dp2027
g100
g101
ssg82
g2016
sg75
(lp2028
S':'
asbag68
(g89
g70
NtRp2029
(dp2030
g73
(dp2031
sg82
g2016
sg75
(lp2032
g68
(g69
g70
NtRp2033
(dp2034
g73
(dp2035
g81
I4
ssg82
g2029
sg75
(lp2036
g68
(g77
g70
NtRp2037
(dp2038
g73
(dp2039
g81
I3
ssg82
Nsg75
(lp2040
g68
(g84
g70
NtRp2041
(dp2042
g73
(dp2043
sg82
g2037
sg75
(lp2044
g68
(g89
g70
NtRp2045
(dp2046
g73
(dp2047
sg82
g2041
sg75
(lp2048
g68
(g69
g70
NtRp2049
(dp2050
g73
(dp2051
g81
I3
ssg82
g2045
sg75
(lp2052
S'1'
asbasbasbag68
(g84
g70
NtRp2053
(dp2054
g73
(dp2055
sg82
g2037
sg75
(lp2056
g68
(g89
g70
NtRp2057
(dp2058
g73
(dp2059
sg82
g2053
sg75
(lp2060
g68
(g69
g70
NtRp2061
(dp2062
g73
(dp2063
g81
I3
ssg82
g2057
sg75
(lp2064
S'99'
p2065
asbasbasbag68
(g84
g70
NtRp2066
(dp2067
g73
(dp2068
sg82
g2037
sg75
(lp2069
g68
(g89
g70
NtRp2070
(dp2071
g73
(dp2072
sg82
g2066
sg75
(lp2073
g68
(g69
g70
NtRp2074
(dp2075
g73
(dp2076
g81
I3
ssg82
g2070
sg75
(lp2077
S'7'
asbasbasbag68
(g84
g70
NtRp2078
(dp2079
g73
(dp2080
sg82
g2037
sg75
(lp2081
g68
(g89
g70
NtRp2082
(dp2083
g73
(dp2084
sg82
g2078
sg75
(lp2085
g68
(g69
g70
NtRp2086
(dp2087
g73
(dp2088
g81
I3
ssg82
g2082
sg75
(lp2089
S'datetime.datetime(2012, 3, 4, 22, 12, 8)'
p2090
asbasbasbag68
(g84
g70
NtRp2091
(dp2092
g73
(dp2093
sg82
g2037
sg75
(lp2094
g68
(g89
g70
NtRp2095
(dp2096
g73
(dp2097
sg82
g2091
sg75
(lp2098
g68
(g69
g70
NtRp2099
(dp2100
g73
(dp2101
g81
I3
ssg82
g2095
sg75
(lp2102
S'stable'
p2103
asbasbasbasbasbasbasbag68
(g84
g70
NtRp2104
(dp2105
g73
(dp2106
sg82
g833
sg75
(lp2107
g68
(g89
g70
NtRp2108
(dp2109
g73
(dp2110
g93
g94
ssg82
g2104
sg75
(lp2111
S'wsgi_errors'
p2112
asbag68
(g89
g70
NtRp2113
(dp2114
g73
(dp2115
g100
g101
ssg82
g2104
sg75
(lp2116
S':'
asbag68
(g89
g70
NtRp2117
(dp2118
g73
(dp2119
sg82
g2104
sg75
(lp2120
g68
(g69
g70
NtRp2121
(dp2122
g73
(dp2123
g81
I4
ssg82
g2117
sg75
(lp2124
S'<mod_wsgi.Log object at 0x7fb8d8916130>'
p2125
asbasbasbag68
(g84
g70
NtRp2126
(dp2127
g73
(dp2128
sg82
g833
sg75
(lp2129
g68
(g89
g70
NtRp2130
(dp2131
g73
(dp2132
g93
g94
ssg82
g2126
sg75
(lp2133
S'wsgi_file_wrapper'
p2134
asbag68
(g89
g70
NtRp2135
(dp2136
g73
(dp2137
g100
g101
ssg82
g2126
sg75
(lp2138
S':'
asbag68
(g89
g70
NtRp2139
(dp2140
g73
(dp2141
sg82
g2126
sg75
(lp2142
g68
(g69
g70
NtRp2143
(dp2144
g73
(dp2145
g81
I4
ssg82
g2139
sg75
(lp2146
S'<built-in method file_wrapper of mod_wsgi.Adapter object at 0x7fb8d8b0bb70>'
p2147
asbasbasbag68
(g84
g70
NtRp2148
(dp2149
g73
(dp2150
sg82
g833
sg75
(lp2151
g68
(g89
g70
NtRp2152
(dp2153
g73
(dp2154
g93
g94
ssg82
g2148
sg75
(lp2155
S'wsgi_input'
p2156
asbag68
(g89
g70
NtRp2157
(dp2158
g73
(dp2159
g100
g101
ssg82
g2148
sg75
(lp2160
S':'
asbag68
(g89
g70
NtRp2161
(dp2162
g73
(dp2163
sg82
g2148
sg75
(lp2164
g68
(g69
g70
NtRp2165
(dp2166
g73
(dp2167
g81
I4
ssg82
g2161
sg75
(lp2168
S'<mod_wsgi.Input object at 0x7fb8d890fd70>'
p2169
asbasbasbag68
(g84
g70
NtRp2170
(dp2171
g73
(dp2172
sg82
g833
sg75
(lp2173
g68
(g89
g70
NtRp2174
(dp2175
g73
(dp2176
g93
g94
ssg82
g2170
sg75
(lp2177
S'wsgi_multiprocess'
p2178
asbag68
(g89
g70
NtRp2179
(dp2180
g73
(dp2181
g100
g101
ssg82
g2170
sg75
(lp2182
S':'
asbag68
(g89
g70
NtRp2183
(dp2184
g73
(dp2185
sg82
g2170
sg75
(lp2186
g68
(g69
g70
NtRp2187
(dp2188
g73
(dp2189
g81
I4
ssg82
g2183
sg75
(lp2190
S'True'
p2191
asbasbasbag68
(g84
g70
NtRp2192
(dp2193
g73
(dp2194
sg82
g833
sg75
(lp2195
g68
(g89
g70
NtRp2196
(dp2197
g73
(dp2198
g93
g94
ssg82
g2192
sg75
(lp2199
S'wsgi_multithread'
p2200
asbag68
(g89
g70
NtRp2201
(dp2202
g73
(dp2203
g100
g101
ssg82
g2192
sg75
(lp2204
S':'
asbag68
(g89
g70
NtRp2205
(dp2206
g73
(dp2207
sg82
g2192
sg75
(lp2208
g68
(g69
g70
NtRp2209
(dp2210
g73
(dp2211
g81
I4
ssg82
g2205
sg75
(lp2212
g111
asbasbasbag68
(g84
g70
NtRp2213
(dp2214
g73
(dp2215
sg82
g833
sg75
(lp2216
g68
(g89
g70
NtRp2217
(dp2218
g73
(dp2219
g93
g94
ssg82
g2213
sg75
(lp2220
S'wsgi_run_once'
p2221
asbag68
(g89
g70
NtRp2222
(dp2223
g73
(dp2224
g100
g101
ssg82
g2213
sg75
(lp2225
S':'
asbag68
(g89
g70
NtRp2226
(dp2227
g73
(dp2228
sg82
g2213
sg75
(lp2229
g68
(g69
g70
NtRp2230
(dp2231
g73
(dp2232
g81
I4
ssg82
g2226
sg75
(lp2233
g111
asbasbasbag68
(g84
g70
NtRp2234
(dp2235
g73
(dp2236
sg82
g833
sg75
(lp2237
g68
(g89
g70
NtRp2238
(dp2239
g73
(dp2240
g93
g94
ssg82
g2234
sg75
(lp2241
S'wsgi_url_scheme'
p2242
asbag68
(g89
g70
NtRp2243
(dp2244
g73
(dp2245
g100
g101
ssg82
g2234
sg75
(lp2246
S':'
asbag68
(g89
g70
NtRp2247
(dp2248
g73
(dp2249
sg82
g2234
sg75
(lp2250
g68
(g69
g70
NtRp2251
(dp2252
g73
(dp2253
g81
I4
ssg82
g2247
sg75
(lp2254
S'https'
p2255
asbasbasbag68
(g84
g70
NtRp2256
(dp2257
g73
(dp2258
sg82
g833
sg75
(lp2259
g68
(g89
g70
NtRp2260
(dp2261
g73
(dp2262
g93
g94
ssg82
g2256
sg75
(lp2263
S'wsgi_version'
p2264
asbag68
(g89
g70
NtRp2265
(dp2266
g73
(dp2267
g100
g101
ssg82
g2256
sg75
(lp2268
S':'
asbag68
(g89
g70
NtRp2269
(dp2270
g73
(dp2271
sg82
g2256
sg75
(lp2272
g68
(g69
g70
NtRp2273
(dp2274
g73
(dp2275
g81
I4
ssg82
g2269
sg75
(lp2276
g68
(g77
g70
NtRp2277
(dp2278
g73
(dp2279
g81
I3
ssg82
Nsg75
(lp2280
g68
(g84
g70
NtRp2281
(dp2282
g73
(dp2283
sg82
g2277
sg75
(lp2284
g68
(g89
g70
NtRp2285
(dp2286
g73
(dp2287
sg82
g2281
sg75
(lp2288
g68
(g69
g70
NtRp2289
(dp2290
g73
(dp2291
g81
I3
ssg82
g2285
sg75
(lp2292
S'1'
asbasbasbag68
(g84
g70
NtRp2293
(dp2294
g73
(dp2295
sg82
g2277
sg75
(lp2296
g68
(g89
g70
NtRp2297
(dp2298
g73
(dp2299
sg82
g2293
sg75
(lp2300
g68
(g69
g70
NtRp2301
(dp2302
g73
(dp2303
g81
I3
ssg82
g2297
sg75
(lp2304
S'1'
asbasbasbasbasbasbasbasbasbasbasbag68
(g84
g70
NtRp2305
(dp2306
g73
(dp2307
sg82
g78
sg75
(lp2308
g68
(g89
g70
NtRp2309
(dp2310
g73
(dp2311
g93
g94
ssg82
g2305
sg75
(lp2312
S'extension'
p2313
asbag68
(g89
g70
NtRp2314
(dp2315
g73
(dp2316
g100
g101
ssg82
g2305
sg75
(lp2317
S':'
asbag68
(g89
g70
NtRp2318
(dp2319
g73
(dp2320
sg82
g2305
sg75
(lp2321
g68
(g69
g70
NtRp2322
(dp2323
g73
(dp2324
g81
I5
ssg82
g2318
sg75
(lp2325
S'html'
p2326
asbasbasbag68
(g84
g70
NtRp2327
(dp2328
g73
(dp2329
sg82
g78
sg75
(lp2330
g68
(g89
g70
NtRp2331
(dp2332
g73
(dp2333
g93
g94
ssg82
g2327
sg75
(lp2334
S'folder'
p2335
asbag68
(g89
g70
NtRp2336
(dp2337
g73
(dp2338
g100
g101
ssg82
g2327
sg75
(lp2339
S':'
asbag68
(g89
g70
NtRp2340
(dp2341
g73
(dp2342
sg82
g2327
sg75
(lp2343
g68
(g69
g70
NtRp2344
(dp2345
g73
(dp2346
g81
I5
ssg82
g2340
sg75
(lp2347
S'/home/lyonwj/webapps/web2py/web2py/applications/NewzTrader/'
p2348
asbasbasbag68
(g84
g70
NtRp2349
(dp2350
g73
(dp2351
sg82
g78
sg75
(lp2352
g68
(g89
g70
NtRp2353
(dp2354
g73
(dp2355
g93
g94
ssg82
g2349
sg75
(lp2356
S'function'
p2357
asbag68
(g89
g70
NtRp2358
(dp2359
g73
(dp2360
g100
g101
ssg82
g2349
sg75
(lp2361
S':'
asbag68
(g89
g70
NtRp2362
(dp2363
g73
(dp2364
sg82
g2349
sg75
(lp2365
g68
(g69
g70
NtRp2366
(dp2367
g73
(dp2368
g81
I5
ssg82
g2362
sg75
(lp2369
S'index'
p2370
asbasbasbag68
(g84
g70
NtRp2371
(dp2372
g73
(dp2373
sg82
g78
sg75
(lp2374
g68
(g89
g70
NtRp2375
(dp2376
g73
(dp2377
g93
g94
ssg82
g2371
sg75
(lp2378
S'get_vars'
p2379
asbag68
(g89
g70
NtRp2380
(dp2381
g73
(dp2382
g100
g101
ssg82
g2371
sg75
(lp2383
S':'
asbag68
(g89
g70
NtRp2384
(dp2385
g73
(dp2386
sg82
g2371
sg75
(lp2387
g68
(g69
g70
NtRp2388
(dp2389
g73
(dp2390
g81
I5
ssg82
g2384
sg75
(lp2391
g68
(g77
g70
NtRp2392
(dp2393
g73
(dp2394
g81
I4
ssg82
Nsg75
(lp2395
sbasbasbasbag68
(g84
g70
NtRp2396
(dp2397
g73
(dp2398
sg82
g78
sg75
(lp2399
g68
(g89
g70
NtRp2400
(dp2401
g73
(dp2402
g93
g94
ssg82
g2396
sg75
(lp2403
S'global_settings'
p2404
asbag68
(g89
g70
NtRp2405
(dp2406
g73
(dp2407
g100
g101
ssg82
g2396
sg75
(lp2408
S':'
asbag68
(g89
g70
NtRp2409
(dp2410
g73
(dp2411
sg82
g2396
sg75
(lp2412
g68
(g69
g70
NtRp2413
(dp2414
g73
(dp2415
g81
I5
ssg82
g2409
sg75
(lp2416
g68
(g77
g70
NtRp2417
(dp2418
g73
(dp2419
g81
I4
ssg82
Nsg75
(lp2420
g68
(g84
g70
NtRp2421
(dp2422
g73
(dp2423
sg82
g2417
sg75
(lp2424
g68
(g89
g70
NtRp2425
(dp2426
g73
(dp2427
g93
g94
ssg82
g2421
sg75
(lp2428
g845
asbag68
(g89
g70
NtRp2429
(dp2430
g73
(dp2431
g100
g101
ssg82
g2421
sg75
(lp2432
S':'
asbag68
(g89
g70
NtRp2433
(dp2434
g73
(dp2435
sg82
g2421
sg75
(lp2436
g68
(g69
g70
NtRp2437
(dp2438
g73
(dp2439
g81
I4
ssg82
g2433
sg75
(lp2440
S"set(['/home/lyonwj/webapps/web2py/web2py/applications/NewzTrader/', '/home/lyonwj/webapps/web2py/web2py/applications/init/'])"
p2441
asbasbasbag68
(g84
g70
NtRp2442
(dp2443
g73
(dp2444
sg82
g2417
sg75
(lp2445
g68
(g89
g70
NtRp2446
(dp2447
g73
(dp2448
g93
g94
ssg82
g2442
sg75
(lp2449
g867
asbag68
(g89
g70
NtRp2450
(dp2451
g73
(dp2452
g100
g101
ssg82
g2442
sg75
(lp2453
S':'
asbag68
(g89
g70
NtRp2454
(dp2455
g73
(dp2456
sg82
g2442
sg75
(lp2457
g68
(g69
g70
NtRp2458
(dp2459
g73
(dp2460
g81
I4
ssg82
g2454
sg75
(lp2461
g880
asbasbasbag68
(g84
g70
NtRp2462
(dp2463
g73
(dp2464
sg82
g2417
sg75
(lp2465
g68
(g89
g70
NtRp2466
(dp2467
g73
(dp2468
g93
g94
ssg82
g2462
sg75
(lp2469
g889
asbag68
(g89
g70
NtRp2470
(dp2471
g73
(dp2472
g100
g101
ssg82
g2462
sg75
(lp2473
S':'
asbag68
(g89
g70
NtRp2474
(dp2475
g73
(dp2476
sg82
g2462
sg75
(lp2477
g68
(g69
g70
NtRp2478
(dp2479
g73
(dp2480
g81
I4
ssg82
g2474
sg75
(lp2481
S'set([])'
p2482
asbasbasbag68
(g84
g70
NtRp2483
(dp2484
g73
(dp2485
sg82
g2417
sg75
(lp2486
g68
(g89
g70
NtRp2487
(dp2488
g73
(dp2489
g93
g94
ssg82
g2483
sg75
(lp2490
g911
asbag68
(g89
g70
NtRp2491
(dp2492
g73
(dp2493
g100
g101
ssg82
g2483
sg75
(lp2494
S':'
asbag68
(g89
g70
NtRp2495
(dp2496
g73
(dp2497
sg82
g2483
sg75
(lp2498
g68
(g69
g70
NtRp2499
(dp2500
g73
(dp2501
g81
I4
ssg82
g2495
sg75
(lp2502
g111
asbasbasbag68
(g84
g70
NtRp2503
(dp2504
g73
(dp2505
sg82
g2417
sg75
(lp2506
g68
(g89
g70
NtRp2507
(dp2508
g73
(dp2509
g93
g94
ssg82
g2503
sg75
(lp2510
g976
asbag68
(g89
g70
NtRp2511
(dp2512
g73
(dp2513
g100
g101
ssg82
g2503
sg75
(lp2514
S':'
asbag68
(g89
g70
NtRp2515
(dp2516
g73
(dp2517
sg82
g2503
sg75
(lp2518
g68
(g69
g70
NtRp2519
(dp2520
g73
(dp2521
g81
I4
ssg82
g2515
sg75
(lp2522
g880
asbasbasbag68
(g84
g70
NtRp2523
(dp2524
g73
(dp2525
sg82
g2417
sg75
(lp2526
g68
(g89
g70
NtRp2527
(dp2528
g73
(dp2529
g93
g94
ssg82
g2523
sg75
(lp2530
g1369
asbag68
(g89
g70
NtRp2531
(dp2532
g73
(dp2533
g100
g101
ssg82
g2523
sg75
(lp2534
S':'
asbag68
(g89
g70
NtRp2535
(dp2536
g73
(dp2537
sg82
g2523
sg75
(lp2538
g68
(g69
g70
NtRp2539
(dp2540
g73
(dp2541
g81
I4
ssg82
g2535
sg75
(lp2542
g111
asbasbasbag68
(g84
g70
NtRp2543
(dp2544
g73
(dp2545
sg82
g2417
sg75
(lp2546
g68
(g89
g70
NtRp2547
(dp2548
g73
(dp2549
g93
g94
ssg82
g2543
sg75
(lp2550
g1390
asbag68
(g89
g70
NtRp2551
(dp2552
g73
(dp2553
g100
g101
ssg82
g2543
sg75
(lp2554
S':'
asbag68
(g89
g70
NtRp2555
(dp2556
g73
(dp2557
sg82
g2543
sg75
(lp2558
g68
(g69
g70
NtRp2559
(dp2560
g73
(dp2561
g81
I4
ssg82
g2555
sg75
(lp2562
g111
asbasbasbag68
(g84
g70
NtRp2563
(dp2564
g73
(dp2565
sg82
g2417
sg75
(lp2566
g68
(g89
g70
NtRp2567
(dp2568
g73
(dp2569
g93
g94
ssg82
g2563
sg75
(lp2570
g2024
asbag68
(g89
g70
NtRp2571
(dp2572
g73
(dp2573
g100
g101
ssg82
g2563
sg75
(lp2574
S':'
asbag68
(g89
g70
NtRp2575
(dp2576
g73
(dp2577
sg82
g2563
sg75
(lp2578
g68
(g69
g70
NtRp2579
(dp2580
g73
(dp2581
g81
I4
ssg82
g2575
sg75
(lp2582
g68
(g77
g70
NtRp2583
(dp2584
g73
(dp2585
g81
I3
ssg82
Nsg75
(lp2586
g68
(g84
g70
NtRp2587
(dp2588
g73
(dp2589
sg82
g2583
sg75
(lp2590
g68
(g89
g70
NtRp2591
(dp2592
g73
(dp2593
sg82
g2587
sg75
(lp2594
g68
(g69
g70
NtRp2595
(dp2596
g73
(dp2597
g81
I3
ssg82
g2591
sg75
(lp2598
S'1'
asbasbasbag68
(g84
g70
NtRp2599
(dp2600
g73
(dp2601
sg82
g2583
sg75
(lp2602
g68
(g89
g70
NtRp2603
(dp2604
g73
(dp2605
sg82
g2599
sg75
(lp2606
g68
(g69
g70
NtRp2607
(dp2608
g73
(dp2609
g81
I3
ssg82
g2603
sg75
(lp2610
S'99'
p2611
asbasbasbag68
(g84
g70
NtRp2612
(dp2613
g73
(dp2614
sg82
g2583
sg75
(lp2615
g68
(g89
g70
NtRp2616
(dp2617
g73
(dp2618
sg82
g2612
sg75
(lp2619
g68
(g69
g70
NtRp2620
(dp2621
g73
(dp2622
g81
I3
ssg82
g2616
sg75
(lp2623
S'7'
asbasbasbag68
(g84
g70
NtRp2624
(dp2625
g73
(dp2626
sg82
g2583
sg75
(lp2627
g68
(g89
g70
NtRp2628
(dp2629
g73
(dp2630
sg82
g2624
sg75
(lp2631
g68
(g69
g70
NtRp2632
(dp2633
g73
(dp2634
g81
I3
ssg82
g2628
sg75
(lp2635
S'datetime.datetime(2012, 3, 4, 22, 12, 8)'
p2636
asbasbasbag68
(g84
g70
NtRp2637
(dp2638
g73
(dp2639
sg82
g2583
sg75
(lp2640
g68
(g89
g70
NtRp2641
(dp2642
g73
(dp2643
sg82
g2637
sg75
(lp2644
g68
(g69
g70
NtRp2645
(dp2646
g73
(dp2647
g81
I3
ssg82
g2641
sg75
(lp2648
g2103
asbasbasbasbasbasbasbasbasbasbasbag68
(g84
g70
NtRp2649
(dp2650
g73
(dp2651
sg82
g78
sg75
(lp2652
g68
(g89
g70
NtRp2653
(dp2654
g73
(dp2655
g93
g94
ssg82
g2649
sg75
(lp2656
S'is_https'
p2657
asbag68
(g89
g70
NtRp2658
(dp2659
g73
(dp2660
g100
g101
ssg82
g2649
sg75
(lp2661
S':'
asbag68
(g89
g70
NtRp2662
(dp2663
g73
(dp2664
sg82
g2649
sg75
(lp2665
g68
(g69
g70
NtRp2666
(dp2667
g73
(dp2668
g81
I5
ssg82
g2662
sg75
(lp2669
g2191
asbasbasbag68
(g84
g70
NtRp2670
(dp2671
g73
(dp2672
sg82
g78
sg75
(lp2673
g68
(g89
g70
NtRp2674
(dp2675
g73
(dp2676
g93
g94
ssg82
g2670
sg75
(lp2677
S'is_local'
p2678
asbag68
(g89
g70
NtRp2679
(dp2680
g73
(dp2681
g100
g101
ssg82
g2670
sg75
(lp2682
S':'
asbag68
(g89
g70
NtRp2683
(dp2684
g73
(dp2685
sg82
g2670
sg75
(lp2686
g68
(g69
g70
NtRp2687
(dp2688
g73
(dp2689
g81
I5
ssg82
g2683
sg75
(lp2690
g2191
asbasbasbag68
(g84
g70
NtRp2691
(dp2692
g73
(dp2693
sg82
g78
sg75
(lp2694
g68
(g89
g70
NtRp2695
(dp2696
g73
(dp2697
g93
g94
ssg82
g2691
sg75
(lp2698
S'is_restful'
p2699
asbag68
(g89
g70
NtRp2700
(dp2701
g73
(dp2702
g100
g101
ssg82
g2691
sg75
(lp2703
S':'
asbag68
(g89
g70
NtRp2704
(dp2705
g73
(dp2706
sg82
g2691
sg75
(lp2707
g68
(g69
g70
NtRp2708
(dp2709
g73
(dp2710
g81
I5
ssg82
g2704
sg75
(lp2711
g111
asbasbasbag68
(g84
g70
NtRp2712
(dp2713
g73
(dp2714
sg82
g78
sg75
(lp2715
g68
(g89
g70
NtRp2716
(dp2717
g73
(dp2718
g93
g94
ssg82
g2712
sg75
(lp2719
S'now'
p2720
asbag68
(g89
g70
NtRp2721
(dp2722
g73
(dp2723
g100
g101
ssg82
g2712
sg75
(lp2724
S':'
asbag68
(g89
g70
NtRp2725
(dp2726
g73
(dp2727
sg82
g2712
sg75
(lp2728
g68
(g69
g70
NtRp2729
(dp2730
g73
(dp2731
g81
I5
ssg82
g2725
sg75
(lp2732
S'datetime.datetime(2012, 11, 17, 3, 50, 38, 441316)'
p2733
asbasbasbag68
(g84
g70
NtRp2734
(dp2735
g73
(dp2736
sg82
g78
sg75
(lp2737
g68
(g89
g70
NtRp2738
(dp2739
g73
(dp2740
g93
g94
ssg82
g2734
sg75
(lp2741
S'post_vars'
p2742
asbag68
(g89
g70
NtRp2743
(dp2744
g73
(dp2745
g100
g101
ssg82
g2734
sg75
(lp2746
S':'
asbag68
(g89
g70
NtRp2747
(dp2748
g73
(dp2749
sg82
g2734
sg75
(lp2750
g68
(g69
g70
NtRp2751
(dp2752
g73
(dp2753
g81
I5
ssg82
g2747
sg75
(lp2754
g68
(g77
g70
NtRp2755
(dp2756
g73
(dp2757
g81
I4
ssg82
Nsg75
(lp2758
sbasbasbasbag68
(g84
g70
NtRp2759
(dp2760
g73
(dp2761
sg82
g78
sg75
(lp2762
g68
(g89
g70
NtRp2763
(dp2764
g73
(dp2765
g93
g94
ssg82
g2759
sg75
(lp2766
S'url'
p2767
asbag68
(g89
g70
NtRp2768
(dp2769
g73
(dp2770
g100
g101
ssg82
g2759
sg75
(lp2771
S':'
asbag68
(g89
g70
NtRp2772
(dp2773
g73
(dp2774
sg82
g2759
sg75
(lp2775
g68
(g69
g70
NtRp2776
(dp2777
g73
(dp2778
g81
I5
ssg82
g2772
sg75
(lp2779
S'/NewzTrader/default/index'
p2780
asbasbasbag68
(g84
g70
NtRp2781
(dp2782
g73
(dp2783
sg82
g78
sg75
(lp2784
g68
(g89
g70
NtRp2785
(dp2786
g73
(dp2787
g93
g94
ssg82
g2781
sg75
(lp2788
S'utcnow'
p2789
asbag68
(g89
g70
NtRp2790
(dp2791
g73
(dp2792
g100
g101
ssg82
g2781
sg75
(lp2793
S':'
asbag68
(g89
g70
NtRp2794
(dp2795
g73
(dp2796
sg82
g2781
sg75
(lp2797
g68
(g69
g70
NtRp2798
(dp2799
g73
(dp2800
g81
I5
ssg82
g2794
sg75
(lp2801
S'datetime.datetime(2012, 11, 17, 3, 50, 38, 441336)'
p2802
asbasbasbag68
(g84
g70
NtRp2803
(dp2804
g73
(dp2805
sg82
g78
sg75
(lp2806
g68
(g89
g70
NtRp2807
(dp2808
g73
(dp2809
g93
g94
ssg82
g2803
sg75
(lp2810
S'uuid'
p2811
asbag68
(g89
g70
NtRp2812
(dp2813
g73
(dp2814
g100
g101
ssg82
g2803
sg75
(lp2815
S':'
asbag68
(g89
g70
NtRp2816
(dp2817
g73
(dp2818
sg82
g2803
sg75
(lp2819
g68
(g69
g70
NtRp2820
(dp2821
g73
(dp2822
g81
I5
ssg82
g2816
sg75
(lp2823
S'NewzTrader/184.166.90.89.2012-11-17.03-50-38.003da2d4-f76a-41fb-8222-17fae21819e9'
p2824
asbasbasbag68
(g84
g70
NtRp2825
(dp2826
g73
(dp2827
sg82
g78
sg75
(lp2828
g68
(g89
g70
NtRp2829
(dp2830
g73
(dp2831
g93
g94
ssg82
g2825
sg75
(lp2832
S'vars'
p2833
asbag68
(g89
g70
NtRp2834
(dp2835
g73
(dp2836
g100
g101
ssg82
g2825
sg75
(lp2837
S':'
asbag68
(g89
g70
NtRp2838
(dp2839
g73
(dp2840
sg82
g2825
sg75
(lp2841
g68
(g69
g70
NtRp2842
(dp2843
g73
(dp2844
g81
I5
ssg82
g2838
sg75
(lp2845
g68
(g77
g70
NtRp2846
(dp2847
g73
(dp2848
g81
I4
ssg82
Nsg75
(lp2849
sbasbasbasbag68
(g84
g70
NtRp2850
(dp2851
g73
(dp2852
sg82
g78
sg75
(lp2853
g68
(g89
g70
NtRp2854
(dp2855
g73
(dp2856
g93
g94
ssg82
g2850
sg75
(lp2857
S'wsgi'
p2858
asbag68
(g89
g70
NtRp2859
(dp2860
g73
(dp2861
g100
g101
ssg82
g2850
sg75
(lp2862
S':'
asbag68
(g89
g70
NtRp2863
(dp2864
g73
(dp2865
sg82
g2850
sg75
(lp2866
g68
(g69
g70
NtRp2867
(dp2868
g73
(dp2869
g81
I5
ssg82
g2863
sg75
(lp2870
g68
(g77
g70
NtRp2871
(dp2872
g73
(dp2873
g81
I4
ssg82
Nsg75
(lp2874
g68
(g84
g70
NtRp2875
(dp2876
g73
(dp2877
sg82
g2871
sg75
(lp2878
g68
(g89
g70
NtRp2879
(dp2880
g73
(dp2881
g93
g94
ssg82
g2875
sg75
(lp2882
S'environ'
p2883
asbag68
(g89
g70
NtRp2884
(dp2885
g73
(dp2886
g100
g101
ssg82
g2875
sg75
(lp2887
S':'
asbag68
(g89
g70
NtRp2888
(dp2889
g73
(dp2890
sg82
g2875
sg75
(lp2891
g68
(g69
g70
NtRp2892
(dp2893
g73
(dp2894
g81
I4
ssg82
g2888
sg75
(lp2895
g68
(g77
g70
NtRp2896
(dp2897
g73
(dp2898
g81
I3
ssg82
Nsg75
(lp2899
g68
(g84
g70
NtRp2900
(dp2901
g73
(dp2902
sg82
g2896
sg75
(lp2903
g68
(g89
g70
NtRp2904
(dp2905
g73
(dp2906
g93
g94
ssg82
g2900
sg75
(lp2907
S'DOCUMENT_ROOT'
p2908
asbag68
(g89
g70
NtRp2909
(dp2910
g73
(dp2911
g100
g101
ssg82
g2900
sg75
(lp2912
S':'
asbag68
(g89
g70
NtRp2913
(dp2914
g73
(dp2915
sg82
g2900
sg75
(lp2916
g68
(g69
g70
NtRp2917
(dp2918
g73
(dp2919
g81
I3
ssg82
g2913
sg75
(lp2920
g945
asbasbasbag68
(g84
g70
NtRp2921
(dp2922
g73
(dp2923
sg82
g2896
sg75
(lp2924
g68
(g89
g70
NtRp2925
(dp2926
g73
(dp2927
g93
g94
ssg82
g2921
sg75
(lp2928
S'GATEWAY_INTERFACE'
p2929
asbag68
(g89
g70
NtRp2930
(dp2931
g73
(dp2932
g100
g101
ssg82
g2921
sg75
(lp2933
S':'
asbag68
(g89
g70
NtRp2934
(dp2935
g73
(dp2936
sg82
g2921
sg75
(lp2937
g68
(g69
g70
NtRp2938
(dp2939
g73
(dp2940
g81
I3
ssg82
g2934
sg75
(lp2941
g967
asbasbasbag68
(g84
g70
NtRp2942
(dp2943
g73
(dp2944
sg82
g2896
sg75
(lp2945
g68
(g89
g70
NtRp2946
(dp2947
g73
(dp2948
g93
g94
ssg82
g2942
sg75
(lp2949
S'HTTPS'
p2950
asbag68
(g89
g70
NtRp2951
(dp2952
g73
(dp2953
g100
g101
ssg82
g2942
sg75
(lp2954
S':'
asbag68
(g89
g70
NtRp2955
(dp2956
g73
(dp2957
sg82
g2942
sg75
(lp2958
g68
(g69
g70
NtRp2959
(dp2960
g73
(dp2961
g81
I3
ssg82
g2955
sg75
(lp2962
S'1'
asbasbasbag68
(g84
g70
NtRp2963
(dp2964
g73
(dp2965
sg82
g2896
sg75
(lp2966
g68
(g89
g70
NtRp2967
(dp2968
g73
(dp2969
g93
g94
ssg82
g2963
sg75
(lp2970
S'HTTP_ACCEPT'
p2971
asbag68
(g89
g70
NtRp2972
(dp2973
g73
(dp2974
g100
g101
ssg82
g2963
sg75
(lp2975
S':'
asbag68
(g89
g70
NtRp2976
(dp2977
g73
(dp2978
sg82
g2963
sg75
(lp2979
g68
(g69
g70
NtRp2980
(dp2981
g73
(dp2982
g81
I3
ssg82
g2976
sg75
(lp2983
g1010
asbasbasbag68
(g84
g70
NtRp2984
(dp2985
g73
(dp2986
sg82
g2896
sg75
(lp2987
g68
(g89
g70
NtRp2988
(dp2989
g73
(dp2990
g93
g94
ssg82
g2984
sg75
(lp2991
S'HTTP_ACCEPT_CHARSET'
p2992
asbag68
(g89
g70
NtRp2993
(dp2994
g73
(dp2995
g100
g101
ssg82
g2984
sg75
(lp2996
S':'
asbag68
(g89
g70
NtRp2997
(dp2998
g73
(dp2999
sg82
g2984
sg75
(lp3000
g68
(g69
g70
NtRp3001
(dp3002
g73
(dp3003
g81
I3
ssg82
g2997
sg75
(lp3004
g1032
asbasbasbag68
(g84
g70
NtRp3005
(dp3006
g73
(dp3007
sg82
g2896
sg75
(lp3008
g68
(g89
g70
NtRp3009
(dp3010
g73
(dp3011
g93
g94
ssg82
g3005
sg75
(lp3012
S'HTTP_ACCEPT_ENCODING'
p3013
asbag68
(g89
g70
NtRp3014
(dp3015
g73
(dp3016
g100
g101
ssg82
g3005
sg75
(lp3017
S':'
asbag68
(g89
g70
NtRp3018
(dp3019
g73
(dp3020
sg82
g3005
sg75
(lp3021
g68
(g69
g70
NtRp3022
(dp3023
g73
(dp3024
g81
I3
ssg82
g3018
sg75
(lp3025
g1054
asbasbasbag68
(g84
g70
NtRp3026
(dp3027
g73
(dp3028
sg82
g2896
sg75
(lp3029
g68
(g89
g70
NtRp3030
(dp3031
g73
(dp3032
g93
g94
ssg82
g3026
sg75
(lp3033
S'HTTP_ACCEPT_LANGUAGE'
p3034
asbag68
(g89
g70
NtRp3035
(dp3036
g73
(dp3037
g100
g101
ssg82
g3026
sg75
(lp3038
S':'
asbag68
(g89
g70
NtRp3039
(dp3040
g73
(dp3041
sg82
g3026
sg75
(lp3042
g68
(g69
g70
NtRp3043
(dp3044
g73
(dp3045
g81
I3
ssg82
g3039
sg75
(lp3046
g1076
asbasbasbag68
(g84
g70
NtRp3047
(dp3048
g73
(dp3049
sg82
g2896
sg75
(lp3050
g68
(g89
g70
NtRp3051
(dp3052
g73
(dp3053
g93
g94
ssg82
g3047
sg75
(lp3054
S'HTTP_CONNECTION'
p3055
asbag68
(g89
g70
NtRp3056
(dp3057
g73
(dp3058
g100
g101
ssg82
g3047
sg75
(lp3059
S':'
asbag68
(g89
g70
NtRp3060
(dp3061
g73
(dp3062
sg82
g3047
sg75
(lp3063
g68
(g69
g70
NtRp3064
(dp3065
g73
(dp3066
g81
I3
ssg82
g3060
sg75
(lp3067
g1098
asbasbasbag68
(g84
g70
NtRp3068
(dp3069
g73
(dp3070
sg82
g2896
sg75
(lp3071
g68
(g89
g70
NtRp3072
(dp3073
g73
(dp3074
g93
g94
ssg82
g3068
sg75
(lp3075
S'HTTP_COOKIE'
p3076
asbag68
(g89
g70
NtRp3077
(dp3078
g73
(dp3079
g100
g101
ssg82
g3068
sg75
(lp3080
S':'
asbag68
(g89
g70
NtRp3081
(dp3082
g73
(dp3083
sg82
g3068
sg75
(lp3084
g68
(g69
g70
NtRp3085
(dp3086
g73
(dp3087
g81
I3
ssg82
g3081
sg75
(lp3088
g1120
asbasbasbag68
(g84
g70
NtRp3089
(dp3090
g73
(dp3091
sg82
g2896
sg75
(lp3092
g68
(g89
g70
NtRp3093
(dp3094
g73
(dp3095
g93
g94
ssg82
g3089
sg75
(lp3096
S'HTTP_FORWARDED_REQUEST_URI'
p3097
asbag68
(g89
g70
NtRp3098
(dp3099
g73
(dp3100
g100
g101
ssg82
g3089
sg75
(lp3101
S':'
asbag68
(g89
g70
NtRp3102
(dp3103
g73
(dp3104
sg82
g3089
sg75
(lp3105
g68
(g69
g70
NtRp3106
(dp3107
g73
(dp3108
g81
I3
ssg82
g3102
sg75
(lp3109
g1142
asbasbasbag68
(g84
g70
NtRp3110
(dp3111
g73
(dp3112
sg82
g2896
sg75
(lp3113
g68
(g89
g70
NtRp3114
(dp3115
g73
(dp3116
g93
g94
ssg82
g3110
sg75
(lp3117
S'HTTP_HOST'
p3118
asbag68
(g89
g70
NtRp3119
(dp3120
g73
(dp3121
g100
g101
ssg82
g3110
sg75
(lp3122
S':'
asbag68
(g89
g70
NtRp3123
(dp3124
g73
(dp3125
sg82
g3110
sg75
(lp3126
g68
(g69
g70
NtRp3127
(dp3128
g73
(dp3129
g81
I3
ssg82
g3123
sg75
(lp3130
g1164
asbasbasbag68
(g84
g70
NtRp3131
(dp3132
g73
(dp3133
sg82
g2896
sg75
(lp3134
g68
(g89
g70
NtRp3135
(dp3136
g73
(dp3137
g93
g94
ssg82
g3131
sg75
(lp3138
S'HTTP_HTTPS'
p3139
asbag68
(g89
g70
NtRp3140
(dp3141
g73
(dp3142
g100
g101
ssg82
g3131
sg75
(lp3143
S':'
asbag68
(g89
g70
NtRp3144
(dp3145
g73
(dp3146
sg82
g3131
sg75
(lp3147
g68
(g69
g70
NtRp3148
(dp3149
g73
(dp3150
g81
I3
ssg82
g3144
sg75
(lp3151
g1208
asbasbasbag68
(g84
g70
NtRp3152
(dp3153
g73
(dp3154
sg82
g2896
sg75
(lp3155
g68
(g89
g70
NtRp3156
(dp3157
g73
(dp3158
g93
g94
ssg82
g3152
sg75
(lp3159
S'HTTP_HTTP_X_FORWARDED_PROTO'
p3160
asbag68
(g89
g70
NtRp3161
(dp3162
g73
(dp3163
g100
g101
ssg82
g3152
sg75
(lp3164
S':'
asbag68
(g89
g70
NtRp3165
(dp3166
g73
(dp3167
sg82
g3152
sg75
(lp3168
g68
(g69
g70
NtRp3169
(dp3170
g73
(dp3171
g81
I3
ssg82
g3165
sg75
(lp3172
g1186
asbasbasbag68
(g84
g70
NtRp3173
(dp3174
g73
(dp3175
sg82
g2896
sg75
(lp3176
g68
(g89
g70
NtRp3177
(dp3178
g73
(dp3179
g93
g94
ssg82
g3173
sg75
(lp3180
S'HTTP_USER_AGENT'
p3181
asbag68
(g89
g70
NtRp3182
(dp3183
g73
(dp3184
g100
g101
ssg82
g3173
sg75
(lp3185
S':'
asbag68
(g89
g70
NtRp3186
(dp3187
g73
(dp3188
sg82
g3173
sg75
(lp3189
g68
(g69
g70
NtRp3190
(dp3191
g73
(dp3192
g81
I3
ssg82
g3186
sg75
(lp3193
g1230
asbasbasbag68
(g84
g70
NtRp3194
(dp3195
g73
(dp3196
sg82
g2896
sg75
(lp3197
g68
(g89
g70
NtRp3198
(dp3199
g73
(dp3200
g93
g94
ssg82
g3194
sg75
(lp3201
S'HTTP_X_FORWARDED_FOR'
p3202
asbag68
(g89
g70
NtRp3203
(dp3204
g73
(dp3205
g100
g101
ssg82
g3194
sg75
(lp3206
S':'
asbag68
(g89
g70
NtRp3207
(dp3208
g73
(dp3209
sg82
g3194
sg75
(lp3210
g68
(g69
g70
NtRp3211
(dp3212
g73
(dp3213
g81
I3
ssg82
g3207
sg75
(lp3214
g201
asbasbasbag68
(g84
g70
NtRp3215
(dp3216
g73
(dp3217
sg82
g2896
sg75
(lp3218
g68
(g89
g70
NtRp3219
(dp3220
g73
(dp3221
g93
g94
ssg82
g3215
sg75
(lp3222
S'HTTP_X_FORWARDED_HOST'
p3223
asbag68
(g89
g70
NtRp3224
(dp3225
g73
(dp3226
g100
g101
ssg82
g3215
sg75
(lp3227
S':'
asbag68
(g89
g70
NtRp3228
(dp3229
g73
(dp3230
sg82
g3215
sg75
(lp3231
g68
(g69
g70
NtRp3232
(dp3233
g73
(dp3234
g81
I3
ssg82
g3228
sg75
(lp3235
g1273
asbasbasbag68
(g84
g70
NtRp3236
(dp3237
g73
(dp3238
sg82
g2896
sg75
(lp3239
g68
(g89
g70
NtRp3240
(dp3241
g73
(dp3242
g93
g94
ssg82
g3236
sg75
(lp3243
S'HTTP_X_FORWARDED_PROTO'
p3244
asbag68
(g89
g70
NtRp3245
(dp3246
g73
(dp3247
g100
g101
ssg82
g3236
sg75
(lp3248
S':'
asbag68
(g89
g70
NtRp3249
(dp3250
g73
(dp3251
sg82
g3236
sg75
(lp3252
g68
(g69
g70
NtRp3253
(dp3254
g73
(dp3255
g81
I3
ssg82
g3249
sg75
(lp3256
g1295
asbasbasbag68
(g84
g70
NtRp3257
(dp3258
g73
(dp3259
sg82
g2896
sg75
(lp3260
g68
(g89
g70
NtRp3261
(dp3262
g73
(dp3263
g93
g94
ssg82
g3257
sg75
(lp3264
S'HTTP_X_FORWARDED_SERVER'
p3265
asbag68
(g89
g70
NtRp3266
(dp3267
g73
(dp3268
g100
g101
ssg82
g3257
sg75
(lp3269
S':'
asbag68
(g89
g70
NtRp3270
(dp3271
g73
(dp3272
sg82
g3257
sg75
(lp3273
g68
(g69
g70
NtRp3274
(dp3275
g73
(dp3276
g81
I3
ssg82
g3270
sg75
(lp3277
g1317
asbasbasbag68
(g84
g70
NtRp3278
(dp3279
g73
(dp3280
sg82
g2896
sg75
(lp3281
g68
(g89
g70
NtRp3282
(dp3283
g73
(dp3284
g93
g94
ssg82
g3278
sg75
(lp3285
S'HTTP_X_FORWARDED_SSL'
p3286
asbag68
(g89
g70
NtRp3287
(dp3288
g73
(dp3289
g100
g101
ssg82
g3278
sg75
(lp3290
S':'
asbag68
(g89
g70
NtRp3291
(dp3292
g73
(dp3293
sg82
g3278
sg75
(lp3294
g68
(g69
g70
NtRp3295
(dp3296
g73
(dp3297
g81
I3
ssg82
g3291
sg75
(lp3298
g1339
asbasbasbag68
(g84
g70
NtRp3299
(dp3300
g73
(dp3301
sg82
g2896
sg75
(lp3302
g68
(g89
g70
NtRp3303
(dp3304
g73
(dp3305
g93
g94
ssg82
g3299
sg75
(lp3306
S'PATH_INFO'
p3307
asbag68
(g89
g70
NtRp3308
(dp3309
g73
(dp3310
g100
g101
ssg82
g3299
sg75
(lp3311
S':'
asbag68
(g89
g70
NtRp3312
(dp3313
g73
(dp3314
sg82
g3299
sg75
(lp3315
g68
(g69
g70
NtRp3316
(dp3317
g73
(dp3318
g81
I3
ssg82
g3312
sg75
(lp3319
g1667
asbasbasbag68
(g84
g70
NtRp3320
(dp3321
g73
(dp3322
sg82
g2896
sg75
(lp3323
g68
(g89
g70
NtRp3324
(dp3325
g73
(dp3326
g93
g94
ssg82
g3320
sg75
(lp3327
S'PATH_TRANSLATED'
p3328
asbag68
(g89
g70
NtRp3329
(dp3330
g73
(dp3331
g100
g101
ssg82
g3320
sg75
(lp3332
S':'
asbag68
(g89
g70
NtRp3333
(dp3334
g73
(dp3335
sg82
g3320
sg75
(lp3336
g68
(g69
g70
NtRp3337
(dp3338
g73
(dp3339
g81
I3
ssg82
g3333
sg75
(lp3340
g1689
asbasbasbag68
(g84
g70
NtRp3341
(dp3342
g73
(dp3343
sg82
g2896
sg75
(lp3344
g68
(g89
g70
NtRp3345
(dp3346
g73
(dp3347
g93
g94
ssg82
g3341
sg75
(lp3348
S'QUERY_STRING'
p3349
asbag68
(g89
g70
NtRp3350
(dp3351
g73
(dp3352
g100
g101
ssg82
g3341
sg75
(lp3353
S':'
asbag68
(g89
g70
NtRp3354
(dp3355
g73
(dp3356
sg82
g3341
sg75
(lp3357
g68
(g69
g70
NtRp3358
(dp3359
g73
(dp3360
g81
I3
ssg82
g3354
sg75
(lp3361
S''
asbasbasbag68
(g84
g70
NtRp3362
(dp3363
g73
(dp3364
sg82
g2896
sg75
(lp3365
g68
(g89
g70
NtRp3366
(dp3367
g73
(dp3368
g93
g94
ssg82
g3362
sg75
(lp3369
S'REMOTE_ADDR'
p3370
asbag68
(g89
g70
NtRp3371
(dp3372
g73
(dp3373
g100
g101
ssg82
g3362
sg75
(lp3374
S':'
asbag68
(g89
g70
NtRp3375
(dp3376
g73
(dp3377
sg82
g3362
sg75
(lp3378
g68
(g69
g70
NtRp3379
(dp3380
g73
(dp3381
g81
I3
ssg82
g3375
sg75
(lp3382
g1732
asbasbasbag68
(g84
g70
NtRp3383
(dp3384
g73
(dp3385
sg82
g2896
sg75
(lp3386
g68
(g89
g70
NtRp3387
(dp3388
g73
(dp3389
g93
g94
ssg82
g3383
sg75
(lp3390
S'REMOTE_PORT'
p3391
asbag68
(g89
g70
NtRp3392
(dp3393
g73
(dp3394
g100
g101
ssg82
g3383
sg75
(lp3395
S':'
asbag68
(g89
g70
NtRp3396
(dp3397
g73
(dp3398
sg82
g3383
sg75
(lp3399
g68
(g69
g70
NtRp3400
(dp3401
g73
(dp3402
g81
I3
ssg82
g3396
sg75
(lp3403
g1754
asbasbasbag68
(g84
g70
NtRp3404
(dp3405
g73
(dp3406
sg82
g2896
sg75
(lp3407
g68
(g89
g70
NtRp3408
(dp3409
g73
(dp3410
g93
g94
ssg82
g3404
sg75
(lp3411
S'REQUEST_METHOD'
p3412
asbag68
(g89
g70
NtRp3413
(dp3414
g73
(dp3415
g100
g101
ssg82
g3404
sg75
(lp3416
S':'
asbag68
(g89
g70
NtRp3417
(dp3418
g73
(dp3419
sg82
g3404
sg75
(lp3420
g68
(g69
g70
NtRp3421
(dp3422
g73
(dp3423
g81
I3
ssg82
g3417
sg75
(lp3424
g1776
asbasbasbag68
(g84
g70
NtRp3425
(dp3426
g73
(dp3427
sg82
g2896
sg75
(lp3428
g68
(g89
g70
NtRp3429
(dp3430
g73
(dp3431
g93
g94
ssg82
g3425
sg75
(lp3432
S'REQUEST_URI'
p3433
asbag68
(g89
g70
NtRp3434
(dp3435
g73
(dp3436
g100
g101
ssg82
g3425
sg75
(lp3437
S':'
asbag68
(g89
g70
NtRp3438
(dp3439
g73
(dp3440
sg82
g3425
sg75
(lp3441
g68
(g69
g70
NtRp3442
(dp3443
g73
(dp3444
g81
I3
ssg82
g3438
sg75
(lp3445
g1798
asbasbasbag68
(g84
g70
NtRp3446
(dp3447
g73
(dp3448
sg82
g2896
sg75
(lp3449
g68
(g89
g70
NtRp3450
(dp3451
g73
(dp3452
g93
g94
ssg82
g3446
sg75
(lp3453
S'SCRIPT_FILENAME'
p3454
asbag68
(g89
g70
NtRp3455
(dp3456
g73
(dp3457
g100
g101
ssg82
g3446
sg75
(lp3458
S':'
asbag68
(g89
g70
NtRp3459
(dp3460
g73
(dp3461
sg82
g3446
sg75
(lp3462
g68
(g69
g70
NtRp3463
(dp3464
g73
(dp3465
g81
I3
ssg82
g3459
sg75
(lp3466
g1820
asbasbasbag68
(g84
g70
NtRp3467
(dp3468
g73
(dp3469
sg82
g2896
sg75
(lp3470
g68
(g89
g70
NtRp3471
(dp3472
g73
(dp3473
g93
g94
ssg82
g3467
sg75
(lp3474
S'SCRIPT_NAME'
p3475
asbag68
(g89
g70
NtRp3476
(dp3477
g73
(dp3478
g100
g101
ssg82
g3467
sg75
(lp3479
S':'
asbag68
(g89
g70
NtRp3480
(dp3481
g73
(dp3482
sg82
g3467
sg75
(lp3483
g68
(g69
g70
NtRp3484
(dp3485
g73
(dp3486
g81
I3
ssg82
g3480
sg75
(lp3487
S''
asbasbasbag68
(g84
g70
NtRp3488
(dp3489
g73
(dp3490
sg82
g2896
sg75
(lp3491
g68
(g89
g70
NtRp3492
(dp3493
g73
(dp3494
g93
g94
ssg82
g3488
sg75
(lp3495
S'SERVER_ADDR'
p3496
asbag68
(g89
g70
NtRp3497
(dp3498
g73
(dp3499
g100
g101
ssg82
g3488
sg75
(lp3500
S':'
asbag68
(g89
g70
NtRp3501
(dp3502
g73
(dp3503
sg82
g3488
sg75
(lp3504
g68
(g69
g70
NtRp3505
(dp3506
g73
(dp3507
g81
I3
ssg82
g3501
sg75
(lp3508
g1863
asbasbasbag68
(g84
g70
NtRp3509
(dp3510
g73
(dp3511
sg82
g2896
sg75
(lp3512
g68
(g89
g70
NtRp3513
(dp3514
g73
(dp3515
g93
g94
ssg82
g3509
sg75
(lp3516
S'SERVER_ADMIN'
p3517
asbag68
(g89
g70
NtRp3518
(dp3519
g73
(dp3520
g100
g101
ssg82
g3509
sg75
(lp3521
S':'
asbag68
(g89
g70
NtRp3522
(dp3523
g73
(dp3524
sg82
g3509
sg75
(lp3525
g68
(g69
g70
NtRp3526
(dp3527
g73
(dp3528
g81
I3
ssg82
g3522
sg75
(lp3529
g1885
asbasbasbag68
(g84
g70
NtRp3530
(dp3531
g73
(dp3532
sg82
g2896
sg75
(lp3533
g68
(g89
g70
NtRp3534
(dp3535
g73
(dp3536
g93
g94
ssg82
g3530
sg75
(lp3537
S'SERVER_NAME'
p3538
asbag68
(g89
g70
NtRp3539
(dp3540
g73
(dp3541
g100
g101
ssg82
g3530
sg75
(lp3542
S':'
asbag68
(g89
g70
NtRp3543
(dp3544
g73
(dp3545
sg82
g3530
sg75
(lp3546
g68
(g69
g70
NtRp3547
(dp3548
g73
(dp3549
g81
I3
ssg82
g3543
sg75
(lp3550
g1907
asbasbasbag68
(g84
g70
NtRp3551
(dp3552
g73
(dp3553
sg82
g2896
sg75
(lp3554
g68
(g89
g70
NtRp3555
(dp3556
g73
(dp3557
g93
g94
ssg82
g3551
sg75
(lp3558
S'SERVER_PORT'
p3559
asbag68
(g89
g70
NtRp3560
(dp3561
g73
(dp3562
g100
g101
ssg82
g3551
sg75
(lp3563
S':'
asbag68
(g89
g70
NtRp3564
(dp3565
g73
(dp3566
sg82
g3551
sg75
(lp3567
g68
(g69
g70
NtRp3568
(dp3569
g73
(dp3570
g81
I3
ssg82
g3564
sg75
(lp3571
g1929
asbasbasbag68
(g84
g70
NtRp3572
(dp3573
g73
(dp3574
sg82
g2896
sg75
(lp3575
g68
(g89
g70
NtRp3576
(dp3577
g73
(dp3578
g93
g94
ssg82
g3572
sg75
(lp3579
S'SERVER_PROTOCOL'
p3580
asbag68
(g89
g70
NtRp3581
(dp3582
g73
(dp3583
g100
g101
ssg82
g3572
sg75
(lp3584
S':'
asbag68
(g89
g70
NtRp3585
(dp3586
g73
(dp3587
sg82
g3572
sg75
(lp3588
g68
(g69
g70
NtRp3589
(dp3590
g73
(dp3591
g81
I3
ssg82
g3585
sg75
(lp3592
g1951
asbasbasbag68
(g84
g70
NtRp3593
(dp3594
g73
(dp3595
sg82
g2896
sg75
(lp3596
g68
(g89
g70
NtRp3597
(dp3598
g73
(dp3599
g93
g94
ssg82
g3593
sg75
(lp3600
S'SERVER_SIGNATURE'
p3601
asbag68
(g89
g70
NtRp3602
(dp3603
g73
(dp3604
g100
g101
ssg82
g3593
sg75
(lp3605
S':'
asbag68
(g89
g70
NtRp3606
(dp3607
g73
(dp3608
sg82
g3593
sg75
(lp3609
g68
(g69
g70
NtRp3610
(dp3611
g73
(dp3612
g81
I3
ssg82
g3606
sg75
(lp3613
S''
asbasbasbag68
(g84
g70
NtRp3614
(dp3615
g73
(dp3616
sg82
g2896
sg75
(lp3617
g68
(g89
g70
NtRp3618
(dp3619
g73
(dp3620
g93
g94
ssg82
g3614
sg75
(lp3621
S'SERVER_SOFTWARE'
p3622
asbag68
(g89
g70
NtRp3623
(dp3624
g73
(dp3625
g100
g101
ssg82
g3614
sg75
(lp3626
S':'
asbag68
(g89
g70
NtRp3627
(dp3628
g73
(dp3629
sg82
g3614
sg75
(lp3630
g68
(g69
g70
NtRp3631
(dp3632
g73
(dp3633
g81
I3
ssg82
g3627
sg75
(lp3634
g1994
asbasbasbag68
(g84
g70
NtRp3635
(dp3636
g73
(dp3637
sg82
g2896
sg75
(lp3638
g68
(g89
g70
NtRp3639
(dp3640
g73
(dp3641
g93
g94
ssg82
g3635
sg75
(lp3642
S'mod_wsgi.application_group'
p3643
asbag68
(g89
g70
NtRp3644
(dp3645
g73
(dp3646
g100
g101
ssg82
g3635
sg75
(lp3647
S':'
asbag68
(g89
g70
NtRp3648
(dp3649
g73
(dp3650
sg82
g3635
sg75
(lp3651
g68
(g69
g70
NtRp3652
(dp3653
g73
(dp3654
g81
I3
ssg82
g3648
sg75
(lp3655
g1424
asbasbasbag68
(g84
g70
NtRp3656
(dp3657
g73
(dp3658
sg82
g2896
sg75
(lp3659
g68
(g89
g70
NtRp3660
(dp3661
g73
(dp3662
g93
g94
ssg82
g3656
sg75
(lp3663
S'mod_wsgi.callable_object'
p3664
asbag68
(g89
g70
NtRp3665
(dp3666
g73
(dp3667
g100
g101
ssg82
g3656
sg75
(lp3668
S':'
asbag68
(g89
g70
NtRp3669
(dp3670
g73
(dp3671
sg82
g3656
sg75
(lp3672
g68
(g69
g70
NtRp3673
(dp3674
g73
(dp3675
g81
I3
ssg82
g3669
sg75
(lp3676
g1446
asbasbasbag68
(g84
g70
NtRp3677
(dp3678
g73
(dp3679
sg82
g2896
sg75
(lp3680
g68
(g89
g70
NtRp3681
(dp3682
g73
(dp3683
g93
g94
ssg82
g3677
sg75
(lp3684
S'mod_wsgi.handler_script'
p3685
asbag68
(g89
g70
NtRp3686
(dp3687
g73
(dp3688
g100
g101
ssg82
g3677
sg75
(lp3689
S':'
asbag68
(g89
g70
NtRp3690
(dp3691
g73
(dp3692
sg82
g3677
sg75
(lp3693
g68
(g69
g70
NtRp3694
(dp3695
g73
(dp3696
g81
I3
ssg82
g3690
sg75
(lp3697
S''
asbasbasbag68
(g84
g70
NtRp3698
(dp3699
g73
(dp3700
sg82
g2896
sg75
(lp3701
g68
(g89
g70
NtRp3702
(dp3703
g73
(dp3704
g93
g94
ssg82
g3698
sg75
(lp3705
S'mod_wsgi.input_chunked'
p3706
asbag68
(g89
g70
NtRp3707
(dp3708
g73
(dp3709
g100
g101
ssg82
g3698
sg75
(lp3710
S':'
asbag68
(g89
g70
NtRp3711
(dp3712
g73
(dp3713
sg82
g3698
sg75
(lp3714
g68
(g69
g70
NtRp3715
(dp3716
g73
(dp3717
g81
I3
ssg82
g3711
sg75
(lp3718
S'0'
asbasbasbag68
(g84
g70
NtRp3719
(dp3720
g73
(dp3721
sg82
g2896
sg75
(lp3722
g68
(g89
g70
NtRp3723
(dp3724
g73
(dp3725
g93
g94
ssg82
g3719
sg75
(lp3726
S'mod_wsgi.listener_host'
p3727
asbag68
(g89
g70
NtRp3728
(dp3729
g73
(dp3730
g100
g101
ssg82
g3719
sg75
(lp3731
S':'
asbag68
(g89
g70
NtRp3732
(dp3733
g73
(dp3734
sg82
g3719
sg75
(lp3735
g68
(g69
g70
NtRp3736
(dp3737
g73
(dp3738
g81
I3
ssg82
g3732
sg75
(lp3739
S''
asbasbasbag68
(g84
g70
NtRp3740
(dp3741
g73
(dp3742
sg82
g2896
sg75
(lp3743
g68
(g89
g70
NtRp3744
(dp3745
g73
(dp3746
g93
g94
ssg82
g3740
sg75
(lp3747
S'mod_wsgi.listener_port'
p3748
asbag68
(g89
g70
NtRp3749
(dp3750
g73
(dp3751
g100
g101
ssg82
g3740
sg75
(lp3752
S':'
asbag68
(g89
g70
NtRp3753
(dp3754
g73
(dp3755
sg82
g3740
sg75
(lp3756
g68
(g69
g70
NtRp3757
(dp3758
g73
(dp3759
g81
I3
ssg82
g3753
sg75
(lp3760
g1531
asbasbasbag68
(g84
g70
NtRp3761
(dp3762
g73
(dp3763
sg82
g2896
sg75
(lp3764
g68
(g89
g70
NtRp3765
(dp3766
g73
(dp3767
g93
g94
ssg82
g3761
sg75
(lp3768
S'mod_wsgi.process_group'
p3769
asbag68
(g89
g70
NtRp3770
(dp3771
g73
(dp3772
g100
g101
ssg82
g3761
sg75
(lp3773
S':'
asbag68
(g89
g70
NtRp3774
(dp3775
g73
(dp3776
sg82
g3761
sg75
(lp3777
g68
(g69
g70
NtRp3778
(dp3779
g73
(dp3780
g81
I3
ssg82
g3774
sg75
(lp3781
g1553
asbasbasbag68
(g84
g70
NtRp3782
(dp3783
g73
(dp3784
sg82
g2896
sg75
(lp3785
g68
(g89
g70
NtRp3786
(dp3787
g73
(dp3788
g93
g94
ssg82
g3782
sg75
(lp3789
S'mod_wsgi.request_handler'
p3790
asbag68
(g89
g70
NtRp3791
(dp3792
g73
(dp3793
g100
g101
ssg82
g3782
sg75
(lp3794
S':'
asbag68
(g89
g70
NtRp3795
(dp3796
g73
(dp3797
sg82
g3782
sg75
(lp3798
g68
(g69
g70
NtRp3799
(dp3800
g73
(dp3801
g81
I3
ssg82
g3795
sg75
(lp3802
g1575
asbasbasbag68
(g84
g70
NtRp3803
(dp3804
g73
(dp3805
sg82
g2896
sg75
(lp3806
g68
(g89
g70
NtRp3807
(dp3808
g73
(dp3809
g93
g94
ssg82
g3803
sg75
(lp3810
S'mod_wsgi.script_reloading'
p3811
asbag68
(g89
g70
NtRp3812
(dp3813
g73
(dp3814
g100
g101
ssg82
g3803
sg75
(lp3815
S':'
asbag68
(g89
g70
NtRp3816
(dp3817
g73
(dp3818
sg82
g3803
sg75
(lp3819
g68
(g69
g70
NtRp3820
(dp3821
g73
(dp3822
g81
I3
ssg82
g3816
sg75
(lp3823
S'1'
asbasbasbag68
(g84
g70
NtRp3824
(dp3825
g73
(dp3826
sg82
g2896
sg75
(lp3827
g68
(g89
g70
NtRp3828
(dp3829
g73
(dp3830
g93
g94
ssg82
g3824
sg75
(lp3831
S'mod_wsgi.version'
p3832
asbag68
(g89
g70
NtRp3833
(dp3834
g73
(dp3835
g100
g101
ssg82
g3824
sg75
(lp3836
S':'
asbag68
(g89
g70
NtRp3837
(dp3838
g73
(dp3839
sg82
g3824
sg75
(lp3840
g68
(g69
g70
NtRp3841
(dp3842
g73
(dp3843
g81
I3
ssg82
g3837
sg75
(lp3844
g68
(g77
g70
NtRp3845
(dp3846
g73
(dp3847
g81
I2
ssg82
Nsg75
(lp3848
g68
(g84
g70
NtRp3849
(dp3850
g73
(dp3851
sg82
g3845
sg75
(lp3852
g68
(g89
g70
NtRp3853
(dp3854
g73
(dp3855
sg82
g3849
sg75
(lp3856
g68
(g69
g70
NtRp3857
(dp3858
g73
(dp3859
g81
I2
ssg82
g3853
sg75
(lp3860
S'3'
asbasbasbag68
(g84
g70
NtRp3861
(dp3862
g73
(dp3863
sg82
g3845
sg75
(lp3864
g68
(g89
g70
NtRp3865
(dp3866
g73
(dp3867
sg82
g3861
sg75
(lp3868
g68
(g69
g70
NtRp3869
(dp3870
g73
(dp3871
g81
I2
ssg82
g3865
sg75
(lp3872
S'3'
asbasbasbasbasbasbasbag68
(g84
g70
NtRp3873
(dp3874
g73
(dp3875
sg82
g2896
sg75
(lp3876
g68
(g89
g70
NtRp3877
(dp3878
g73
(dp3879
g93
g94
ssg82
g3873
sg75
(lp3880
S'wsgi.errors'
p3881
asbag68
(g89
g70
NtRp3882
(dp3883
g73
(dp3884
g100
g101
ssg82
g3873
sg75
(lp3885
S':'
asbag68
(g89
g70
NtRp3886
(dp3887
g73
(dp3888
sg82
g3873
sg75
(lp3889
g68
(g69
g70
NtRp3890
(dp3891
g73
(dp3892
g81
I3
ssg82
g3886
sg75
(lp3893
S'<mod_wsgi.Log object at 0x7fb8d8916130>'
p3894
asbasbasbag68
(g84
g70
NtRp3895
(dp3896
g73
(dp3897
sg82
g2896
sg75
(lp3898
g68
(g89
g70
NtRp3899
(dp3900
g73
(dp3901
g93
g94
ssg82
g3895
sg75
(lp3902
S'wsgi.file_wrapper'
p3903
asbag68
(g89
g70
NtRp3904
(dp3905
g73
(dp3906
g100
g101
ssg82
g3895
sg75
(lp3907
S':'
asbag68
(g89
g70
NtRp3908
(dp3909
g73
(dp3910
sg82
g3895
sg75
(lp3911
g68
(g69
g70
NtRp3912
(dp3913
g73
(dp3914
g81
I3
ssg82
g3908
sg75
(lp3915
S'<built-in method file_wrapper of mod_wsgi.Adapter object at 0x7fb8d8b0bb70>'
p3916
asbasbasbag68
(g84
g70
NtRp3917
(dp3918
g73
(dp3919
sg82
g2896
sg75
(lp3920
g68
(g89
g70
NtRp3921
(dp3922
g73
(dp3923
g93
g94
ssg82
g3917
sg75
(lp3924
S'wsgi.input'
p3925
asbag68
(g89
g70
NtRp3926
(dp3927
g73
(dp3928
g100
g101
ssg82
g3917
sg75
(lp3929
S':'
asbag68
(g89
g70
NtRp3930
(dp3931
g73
(dp3932
sg82
g3917
sg75
(lp3933
g68
(g69
g70
NtRp3934
(dp3935
g73
(dp3936
g81
I3
ssg82
g3930
sg75
(lp3937
S'<cStringIO.StringO object at 0x7fb8d8b0d9d0>'
p3938
asbasbasbag68
(g84
g70
NtRp3939
(dp3940
g73
(dp3941
sg82
g2896
sg75
(lp3942
g68
(g89
g70
NtRp3943
(dp3944
g73
(dp3945
g93
g94
ssg82
g3939
sg75
(lp3946
S'wsgi.multiprocess'
p3947
asbag68
(g89
g70
NtRp3948
(dp3949
g73
(dp3950
g100
g101
ssg82
g3939
sg75
(lp3951
S':'
asbag68
(g89
g70
NtRp3952
(dp3953
g73
(dp3954
sg82
g3939
sg75
(lp3955
g68
(g69
g70
NtRp3956
(dp3957
g73
(dp3958
g81
I3
ssg82
g3952
sg75
(lp3959
g2191
asbasbasbag68
(g84
g70
NtRp3960
(dp3961
g73
(dp3962
sg82
g2896
sg75
(lp3963
g68
(g89
g70
NtRp3964
(dp3965
g73
(dp3966
g93
g94
ssg82
g3960
sg75
(lp3967
S'wsgi.multithread'
p3968
asbag68
(g89
g70
NtRp3969
(dp3970
g73
(dp3971
g100
g101
ssg82
g3960
sg75
(lp3972
S':'
asbag68
(g89
g70
NtRp3973
(dp3974
g73
(dp3975
sg82
g3960
sg75
(lp3976
g68
(g69
g70
NtRp3977
(dp3978
g73
(dp3979
g81
I3
ssg82
g3973
sg75
(lp3980
g111
asbasbasbag68
(g84
g70
NtRp3981
(dp3982
g73
(dp3983
sg82
g2896
sg75
(lp3984
g68
(g89
g70
NtRp3985
(dp3986
g73
(dp3987
g93
g94
ssg82
g3981
sg75
(lp3988
S'wsgi.run_once'
p3989
asbag68
(g89
g70
NtRp3990
(dp3991
g73
(dp3992
g100
g101
ssg82
g3981
sg75
(lp3993
S':'
asbag68
(g89
g70
NtRp3994
(dp3995
g73
(dp3996
sg82
g3981
sg75
(lp3997
g68
(g69
g70
NtRp3998
(dp3999
g73
(dp4000
g81
I3
ssg82
g3994
sg75
(lp4001
g111
asbasbasbag68
(g84
g70
NtRp4002
(dp4003
g73
(dp4004
sg82
g2896
sg75
(lp4005
g68
(g89
g70
NtRp4006
(dp4007
g73
(dp4008
g93
g94
ssg82
g4002
sg75
(lp4009
S'wsgi.url_scheme'
p4010
asbag68
(g89
g70
NtRp4011
(dp4012
g73
(dp4013
g100
g101
ssg82
g4002
sg75
(lp4014
S':'
asbag68
(g89
g70
NtRp4015
(dp4016
g73
(dp4017
sg82
g4002
sg75
(lp4018
g68
(g69
g70
NtRp4019
(dp4020
g73
(dp4021
g81
I3
ssg82
g4015
sg75
(lp4022
g2255
asbasbasbag68
(g84
g70
NtRp4023
(dp4024
g73
(dp4025
sg82
g2896
sg75
(lp4026
g68
(g89
g70
NtRp4027
(dp4028
g73
(dp4029
g93
g94
ssg82
g4023
sg75
(lp4030
S'wsgi.version'
p4031
asbag68
(g89
g70
NtRp4032
(dp4033
g73
(dp4034
g100
g101
ssg82
g4023
sg75
(lp4035
S':'
asbag68
(g89
g70
NtRp4036
(dp4037
g73
(dp4038
sg82
g4023
sg75
(lp4039
g68
(g69
g70
NtRp4040
(dp4041
g73
(dp4042
g81
I3
ssg82
g4036
sg75
(lp4043
S'1'
asbasbasbasbasbasbasbasbasbasbasbasbasbsS'frames'
p4044
(lp4045
(dp4046
S'file'
p4047
S'/home/lyonwj/webapps/web2py/web2py/gluon/restricted.py'
p4048
sS'dump'
p4049
(dp4050
S'code'
p4051
S'r"left_sidebar_enabled,right_sidebar_enabled=False...ponse.write(\'\\n</body>\\n</html>\\n\', escape=False)"'
p4052
sS'layer'
p4053
S"'/home/lyonwj/webapps/web2py/web2py/applications/NewzTrader/views/default/index.html'"
p4054
sS'global compile2'
p4055
S'<function compile2>'
p4056
sS'ccode'
p4057
S'undefined'
p4058
ssS'lnum'
p4059
I204
sS'lines'
p4060
(dp4061
I199
S"    environment['__name__'] = '__restricted__'"
p4062
sI200
S'    try:'
p4063
sI201
S'        if type(code) == types.CodeType:'
p4064
sI202
S'            ccode = code'
p4065
sI203
S'        else:'
p4066
sI204
S'            ccode = compile2(code,layer)'
p4067
sI205
S'        exec ccode in environment'
p4068
sI206
S'    except HTTP:'
p4069
sI207
S'        raise'
p4070
sI208
S'    except RestrictedError:'
p4071
ssS'call'
p4072
S'(code=r"left_sidebar_enabled,right_sidebar_enabled=False...ponse.write(\'\\n</body>\\n</html>\\n\', escape=False)", environment={\'A\': <class \'gluon.html.A\'>, \'Auth\': <class \'gluon.tools.Auth\'>, \'B\': <class \'gluon.html.B\'>, \'BEAUTIFY\': <class \'gluon.html.BEAUTIFY\'>, \'BODY\': <class \'gluon.html.BODY\'>, \'BR\': <class \'gluon.html.BR\'>, \'BUTTON\': <class \'gluon.html.BUTTON\'>, \'CAT\': <class \'gluon.html.CAT\'>, \'CENTER\': <class \'gluon.html.CENTER\'>, \'CLEANUP\': <class \'gluon.validators.CLEANUP\'>, ...}, layer=\'/home/lyonwj/webapps/web2py/web2py/applications/NewzTrader/views/default/index.html\')'
p4073
sS'func'
p4074
S'restricted'
p4075
sa(dp4076
g4047
S'/home/lyonwj/webapps/web2py/web2py/gluon/restricted.py'
p4077
sg4049
(dp4078
S'builtincompile'
p4079
S'<built-in function compile>'
p4080
sS'code'
p4081
S'r"left_sidebar_enabled,right_sidebar_enabled=False...ponse.write(\'\\n</body>\\n</html>\\n\', escape=False)"'
p4082
sS'code.rstrip'
p4083
S'<built-in method rstrip of str object>'
p4084
sS').replace'
p4085
g4058
sS'layer'
p4086
S"'/home/lyonwj/webapps/web2py/web2py/applications/NewzTrader/views/default/index.html'"
p4087
ssg4059
I189
sg4060
(dp4088
I192
S'    """'
p4089
sI193
S'    runs code in environment and returns the output. if an exception occurs'
p4090
sI184
S''
sI185
S'def compile2(code,layer):'
p4091
sI186
S'    """'
p4092
sI187
S"    The +'\\n' is necessary else compile fails when code ends in a comment."
p4093
sI188
S'    """'
p4094
sI189
S"    return compile(code.rstrip().replace('\\r\\n','\\n')+'\\n', layer, 'exec')"
p4095
sI190
S''
sI191
S"def restricted(code, environment=None, layer='Unknown'):"
p4096
ssg4072
S'(code=r"left_sidebar_enabled,right_sidebar_enabled=False...ponse.write(\'\\n</body>\\n</html>\\n\', escape=False)", layer=\'/home/lyonwj/webapps/web2py/web2py/applications/NewzTrader/views/default/index.html\')'
p4097
sg4074
S'compile2'
p4098
sasS'pyver'
p4099
S'Python 2.7.3: /usr/bin/python'
p4100
sS'session'
p4101
g68
(g69
g70
NtRp4102
(dp4103
g73
(dp4104
sg75
(lp4105
g68
(g77
g70
NtRp4106
(dp4107
g73
(dp4108
g81
I5
ssg82
Nsg75
(lp4109
sbasbsS'etype'
p4110
S"<type 'exceptions.SyntaxError'>"
p4111
sS'date'
p4112
S'Sat Nov 17 03:50:40 2012'
p4113
sS'response'
p4114
g68
(g69
g70
NtRp4115
(dp4116
g73
(dp4117
sg75
(lp4118
g68
(g77
g70
NtRp4119
(dp4120
g73
(dp4121
g81
I5
ssg82
Nsg75
(lp4122
g68
(g84
g70
NtRp4123
(dp4124
g73
(dp4125
sg82
g4119
sg75
(lp4126
g68
(g89
g70
NtRp4127
(dp4128
g73
(dp4129
g93
g94
ssg82
g4123
sg75
(lp4130
g166
asbag68
(g89
g70
NtRp4131
(dp4132
g73
(dp4133
g100
g101
ssg82
g4123
sg75
(lp4134
S':'
asbag68
(g89
g70
NtRp4135
(dp4136
g73
(dp4137
sg82
g4123
sg75
(lp4138
g68
(g69
g70
NtRp4139
(dp4140
g73
(dp4141
g81
I5
ssg82
g4135
sg75
(lp4142
S'<cStringIO.StringO object at 0x7fb8d8b0d5e0>'
p4143
asbasbasbag68
(g84
g70
NtRp4144
(dp4145
g73
(dp4146
sg82
g4119
sg75
(lp4147
g68
(g89
g70
NtRp4148
(dp4149
g73
(dp4150
g93
g94
ssg82
g4144
sg75
(lp4151
g232
asbag68
(g89
g70
NtRp4152
(dp4153
g73
(dp4154
g100
g101
ssg82
g4144
sg75
(lp4155
S':'
asbag68
(g89
g70
NtRp4156
(dp4157
g73
(dp4158
sg82
g4144
sg75
(lp4159
g68
(g69
g70
NtRp4160
(dp4161
g73
(dp4162
g81
I5
ssg82
g4156
sg75
(lp4163
g68
(g77
g70
NtRp4164
(dp4165
g73
(dp4166
g81
I4
ssg82
Nsg75
(lp4167
g68
(g84
g70
NtRp4168
(dp4169
g73
(dp4170
sg82
g4164
sg75
(lp4171
g68
(g89
g70
NtRp4172
(dp4173
g73
(dp4174
g93
g94
ssg82
g4168
sg75
(lp4175
S'session_id_newztrader'
p4176
asbag68
(g89
g70
NtRp4177
(dp4178
g73
(dp4179
g100
g101
ssg82
g4168
sg75
(lp4180
S':'
asbag68
(g89
g70
NtRp4181
(dp4182
g73
(dp4183
sg82
g4168
sg75
(lp4184
g68
(g69
g70
NtRp4185
(dp4186
g73
(dp4187
g81
I4
ssg82
g4181
sg75
(lp4188
g68
(g77
g70
NtRp4189
(dp4190
g73
(dp4191
g81
I3
ssg82
Nsg75
(lp4192
g68
(g84
g70
NtRp4193
(dp4194
g73
(dp4195
sg82
g4189
sg75
(lp4196
g68
(g89
g70
NtRp4197
(dp4198
g73
(dp4199
g93
g94
ssg82
g4193
sg75
(lp4200
g282
asbag68
(g89
g70
NtRp4201
(dp4202
g73
(dp4203
g100
g101
ssg82
g4193
sg75
(lp4204
S':'
asbag68
(g89
g70
NtRp4205
(dp4206
g73
(dp4207
sg82
g4193
sg75
(lp4208
g68
(g69
g70
NtRp4209
(dp4210
g73
(dp4211
g81
I3
ssg82
g4205
sg75
(lp4212
S''
asbasbasbag68
(g84
g70
NtRp4213
(dp4214
g73
(dp4215
sg82
g4189
sg75
(lp4216
g68
(g89
g70
NtRp4217
(dp4218
g73
(dp4219
g93
g94
ssg82
g4213
sg75
(lp4220
g303
asbag68
(g89
g70
NtRp4221
(dp4222
g73
(dp4223
g100
g101
ssg82
g4213
sg75
(lp4224
S':'
asbag68
(g89
g70
NtRp4225
(dp4226
g73
(dp4227
sg82
g4213
sg75
(lp4228
g68
(g69
g70
NtRp4229
(dp4230
g73
(dp4231
g81
I3
ssg82
g4225
sg75
(lp4232
S''
asbasbasbag68
(g84
g70
NtRp4233
(dp4234
g73
(dp4235
sg82
g4189
sg75
(lp4236
g68
(g89
g70
NtRp4237
(dp4238
g73
(dp4239
g93
g94
ssg82
g4233
sg75
(lp4240
g324
asbag68
(g89
g70
NtRp4241
(dp4242
g73
(dp4243
g100
g101
ssg82
g4233
sg75
(lp4244
S':'
asbag68
(g89
g70
NtRp4245
(dp4246
g73
(dp4247
sg82
g4233
sg75
(lp4248
g68
(g69
g70
NtRp4249
(dp4250
g73
(dp4251
g81
I3
ssg82
g4245
sg75
(lp4252
S''
asbasbasbag68
(g84
g70
NtRp4253
(dp4254
g73
(dp4255
sg82
g4189
sg75
(lp4256
g68
(g89
g70
NtRp4257
(dp4258
g73
(dp4259
g93
g94
ssg82
g4253
sg75
(lp4260
g345
asbag68
(g89
g70
NtRp4261
(dp4262
g73
(dp4263
g100
g101
ssg82
g4253
sg75
(lp4264
S':'
asbag68
(g89
g70
NtRp4265
(dp4266
g73
(dp4267
sg82
g4253
sg75
(lp4268
g68
(g69
g70
NtRp4269
(dp4270
g73
(dp4271
g81
I3
ssg82
g4265
sg75
(lp4272
S''
asbasbasbag68
(g84
g70
NtRp4273
(dp4274
g73
(dp4275
sg82
g4189
sg75
(lp4276
g68
(g89
g70
NtRp4277
(dp4278
g73
(dp4279
g93
g94
ssg82
g4273
sg75
(lp4280
g366
asbag68
(g89
g70
NtRp4281
(dp4282
g73
(dp4283
g100
g101
ssg82
g4273
sg75
(lp4284
S':'
asbag68
(g89
g70
NtRp4285
(dp4286
g73
(dp4287
sg82
g4273
sg75
(lp4288
g68
(g69
g70
NtRp4289
(dp4290
g73
(dp4291
g81
I3
ssg82
g4285
sg75
(lp4292
S''
asbasbasbag68
(g84
g70
NtRp4293
(dp4294
g73
(dp4295
sg82
g4189
sg75
(lp4296
g68
(g89
g70
NtRp4297
(dp4298
g73
(dp4299
g93
g94
ssg82
g4293
sg75
(lp4300
g387
asbag68
(g89
g70
NtRp4301
(dp4302
g73
(dp4303
g100
g101
ssg82
g4293
sg75
(lp4304
S':'
asbag68
(g89
g70
NtRp4305
(dp4306
g73
(dp4307
sg82
g4293
sg75
(lp4308
g68
(g69
g70
NtRp4309
(dp4310
g73
(dp4311
g81
I3
ssg82
g4305
sg75
(lp4312
S'/'
asbasbasbag68
(g84
g70
NtRp4313
(dp4314
g73
(dp4315
sg82
g4189
sg75
(lp4316
g68
(g89
g70
NtRp4317
(dp4318
g73
(dp4319
g93
g94
ssg82
g4313
sg75
(lp4320
g408
asbag68
(g89
g70
NtRp4321
(dp4322
g73
(dp4323
g100
g101
ssg82
g4313
sg75
(lp4324
S':'
asbag68
(g89
g70
NtRp4325
(dp4326
g73
(dp4327
sg82
g4313
sg75
(lp4328
g68
(g69
g70
NtRp4329
(dp4330
g73
(dp4331
g81
I3
ssg82
g4325
sg75
(lp4332
S''
asbasbasbag68
(g84
g70
NtRp4333
(dp4334
g73
(dp4335
sg82
g4189
sg75
(lp4336
g68
(g89
g70
NtRp4337
(dp4338
g73
(dp4339
g93
g94
ssg82
g4333
sg75
(lp4340
g429
asbag68
(g89
g70
NtRp4341
(dp4342
g73
(dp4343
g100
g101
ssg82
g4333
sg75
(lp4344
S':'
asbag68
(g89
g70
NtRp4345
(dp4346
g73
(dp4347
sg82
g4333
sg75
(lp4348
g68
(g69
g70
NtRp4349
(dp4350
g73
(dp4351
g81
I3
ssg82
g4345
sg75
(lp4352
S''
asbasbasbasbasbasbasbasbasbasbasbag68
(g84
g70
NtRp4353
(dp4354
g73
(dp4355
sg82
g4119
sg75
(lp4356
g68
(g89
g70
NtRp4357
(dp4358
g73
(dp4359
g93
g94
ssg82
g4353
sg75
(lp4360
S'delimiters'
p4361
asbag68
(g89
g70
NtRp4362
(dp4363
g73
(dp4364
g100
g101
ssg82
g4353
sg75
(lp4365
S':'
asbag68
(g89
g70
NtRp4366
(dp4367
g73
(dp4368
sg82
g4353
sg75
(lp4369
g68
(g69
g70
NtRp4370
(dp4371
g73
(dp4372
g81
I5
ssg82
g4366
sg75
(lp4373
g68
(g77
g70
NtRp4374
(dp4375
g73
(dp4376
g81
I4
ssg82
Nsg75
(lp4377
g68
(g84
g70
NtRp4378
(dp4379
g73
(dp4380
sg82
g4374
sg75
(lp4381
g68
(g89
g70
NtRp4382
(dp4383
g73
(dp4384
sg82
g4378
sg75
(lp4385
g68
(g69
g70
NtRp4386
(dp4387
g73
(dp4388
g81
I4
ssg82
g4382
sg75
(lp4389
S'{{'
p4390
asbasbasbag68
(g84
g70
NtRp4391
(dp4392
g73
(dp4393
sg82
g4374
sg75
(lp4394
g68
(g89
g70
NtRp4395
(dp4396
g73
(dp4397
sg82
g4391
sg75
(lp4398
g68
(g69
g70
NtRp4399
(dp4400
g73
(dp4401
g81
I4
ssg82
g4395
sg75
(lp4402
S'}}'
p4403
asbasbasbasbasbasbasbag68
(g84
g70
NtRp4404
(dp4405
g73
(dp4406
sg82
g4119
sg75
(lp4407
g68
(g89
g70
NtRp4408
(dp4409
g73
(dp4410
g93
g94
ssg82
g4404
sg75
(lp4411
S'files'
p4412
asbag68
(g89
g70
NtRp4413
(dp4414
g73
(dp4415
g100
g101
ssg82
g4404
sg75
(lp4416
S':'
asbag68
(g89
g70
NtRp4417
(dp4418
g73
(dp4419
sg82
g4404
sg75
(lp4420
g68
(g69
g70
NtRp4421
(dp4422
g73
(dp4423
g81
I5
ssg82
g4417
sg75
(lp4424
g68
(g77
g70
NtRp4425
(dp4426
g73
(dp4427
g81
I4
ssg82
Nsg75
(lp4428
sbasbasbasbag68
(g84
g70
NtRp4429
(dp4430
g73
(dp4431
sg82
g4119
sg75
(lp4432
g68
(g89
g70
NtRp4433
(dp4434
g73
(dp4435
g93
g94
ssg82
g4429
sg75
(lp4436
S'flash'
p4437
asbag68
(g89
g70
NtRp4438
(dp4439
g73
(dp4440
g100
g101
ssg82
g4429
sg75
(lp4441
S':'
asbag68
(g89
g70
NtRp4442
(dp4443
g73
(dp4444
sg82
g4429
sg75
(lp4445
g68
(g69
g70
NtRp4446
(dp4447
g73
(dp4448
g81
I5
ssg82
g4442
sg75
(lp4449
S''
asbasbasbag68
(g84
g70
NtRp4450
(dp4451
g73
(dp4452
sg82
g4119
sg75
(lp4453
g68
(g89
g70
NtRp4454
(dp4455
g73
(dp4456
g93
g94
ssg82
g4450
sg75
(lp4457
S'generic_patterns'
p4458
asbag68
(g89
g70
NtRp4459
(dp4460
g73
(dp4461
g100
g101
ssg82
g4450
sg75
(lp4462
S':'
asbag68
(g89
g70
NtRp4463
(dp4464
g73
(dp4465
sg82
g4450
sg75
(lp4466
g68
(g69
g70
NtRp4467
(dp4468
g73
(dp4469
g81
I5
ssg82
g4463
sg75
(lp4470
g68
(g77
g70
NtRp4471
(dp4472
g73
(dp4473
g81
I4
ssg82
Nsg75
(lp4474
g68
(g84
g70
NtRp4475
(dp4476
g73
(dp4477
sg82
g4471
sg75
(lp4478
g68
(g89
g70
NtRp4479
(dp4480
g73
(dp4481
sg82
g4475
sg75
(lp4482
g68
(g69
g70
NtRp4483
(dp4484
g73
(dp4485
g81
I4
ssg82
g4479
sg75
(lp4486
S'*'
asbasbasbasbasbasbasbag68
(g84
g70
NtRp4487
(dp4488
g73
(dp4489
sg82
g4119
sg75
(lp4490
g68
(g89
g70
NtRp4491
(dp4492
g73
(dp4493
g93
g94
ssg82
g4487
sg75
(lp4494
S'headers'
p4495
asbag68
(g89
g70
NtRp4496
(dp4497
g73
(dp4498
g100
g101
ssg82
g4487
sg75
(lp4499
S':'
asbag68
(g89
g70
NtRp4500
(dp4501
g73
(dp4502
sg82
g4487
sg75
(lp4503
g68
(g69
g70
NtRp4504
(dp4505
g73
(dp4506
g81
I5
ssg82
g4500
sg75
(lp4507
g68
(g77
g70
NtRp4508
(dp4509
g73
(dp4510
g81
I4
ssg82
Nsg75
(lp4511
g68
(g84
g70
NtRp4512
(dp4513
g73
(dp4514
sg82
g4508
sg75
(lp4515
g68
(g89
g70
NtRp4516
(dp4517
g73
(dp4518
g93
g94
ssg82
g4512
sg75
(lp4519
S'Cache-Control'
p4520
asbag68
(g89
g70
NtRp4521
(dp4522
g73
(dp4523
g100
g101
ssg82
g4512
sg75
(lp4524
S':'
asbag68
(g89
g70
NtRp4525
(dp4526
g73
(dp4527
sg82
g4512
sg75
(lp4528
g68
(g69
g70
NtRp4529
(dp4530
g73
(dp4531
g81
I4
ssg82
g4525
sg75
(lp4532
S'no-store, no-cache, must-revalidate, post-check=0, pre-check=0'
p4533
asbasbasbag68
(g84
g70
NtRp4534
(dp4535
g73
(dp4536
sg82
g4508
sg75
(lp4537
g68
(g89
g70
NtRp4538
(dp4539
g73
(dp4540
g93
g94
ssg82
g4534
sg75
(lp4541
S'Content-Type'
p4542
asbag68
(g89
g70
NtRp4543
(dp4544
g73
(dp4545
g100
g101
ssg82
g4534
sg75
(lp4546
S':'
asbag68
(g89
g70
NtRp4547
(dp4548
g73
(dp4549
sg82
g4534
sg75
(lp4550
g68
(g69
g70
NtRp4551
(dp4552
g73
(dp4553
g81
I4
ssg82
g4547
sg75
(lp4554
S'text/html; charset=utf-8'
p4555
asbasbasbag68
(g84
g70
NtRp4556
(dp4557
g73
(dp4558
sg82
g4508
sg75
(lp4559
g68
(g89
g70
NtRp4560
(dp4561
g73
(dp4562
g93
g94
ssg82
g4556
sg75
(lp4563
S'Expires'
p4564
asbag68
(g89
g70
NtRp4565
(dp4566
g73
(dp4567
g100
g101
ssg82
g4556
sg75
(lp4568
S':'
asbag68
(g89
g70
NtRp4569
(dp4570
g73
(dp4571
sg82
g4556
sg75
(lp4572
g68
(g69
g70
NtRp4573
(dp4574
g73
(dp4575
g81
I4
ssg82
g4569
sg75
(lp4576
S'Sat, 17 Nov 2012 03:50:38 GMT'
p4577
asbasbasbag68
(g84
g70
NtRp4578
(dp4579
g73
(dp4580
sg82
g4508
sg75
(lp4581
g68
(g89
g70
NtRp4582
(dp4583
g73
(dp4584
g93
g94
ssg82
g4578
sg75
(lp4585
S'Pragma'
p4586
asbag68
(g89
g70
NtRp4587
(dp4588
g73
(dp4589
g100
g101
ssg82
g4578
sg75
(lp4590
S':'
asbag68
(g89
g70
NtRp4591
(dp4592
g73
(dp4593
sg82
g4578
sg75
(lp4594
g68
(g69
g70
NtRp4595
(dp4596
g73
(dp4597
g81
I4
ssg82
g4591
sg75
(lp4598
S'no-cache'
p4599
asbasbasbag68
(g84
g70
NtRp4600
(dp4601
g73
(dp4602
sg82
g4508
sg75
(lp4603
g68
(g89
g70
NtRp4604
(dp4605
g73
(dp4606
g93
g94
ssg82
g4600
sg75
(lp4607
S'X-Powered-By'
p4608
asbag68
(g89
g70
NtRp4609
(dp4610
g73
(dp4611
g100
g101
ssg82
g4600
sg75
(lp4612
S':'
asbag68
(g89
g70
NtRp4613
(dp4614
g73
(dp4615
sg82
g4600
sg75
(lp4616
g68
(g69
g70
NtRp4617
(dp4618
g73
(dp4619
g81
I4
ssg82
g4613
sg75
(lp4620
S'web2py'
p4621
asbasbasbasbasbasbasbag68
(g84
g70
NtRp4622
(dp4623
g73
(dp4624
sg82
g4119
sg75
(lp4625
g68
(g89
g70
NtRp4626
(dp4627
g73
(dp4628
g93
g94
ssg82
g4622
sg75
(lp4629
S'menu'
p4630
asbag68
(g89
g70
NtRp4631
(dp4632
g73
(dp4633
g100
g101
ssg82
g4622
sg75
(lp4634
S':'
asbag68
(g89
g70
NtRp4635
(dp4636
g73
(dp4637
sg82
g4622
sg75
(lp4638
g68
(g69
g70
NtRp4639
(dp4640
g73
(dp4641
g81
I5
ssg82
g4635
sg75
(lp4642
g68
(g77
g70
NtRp4643
(dp4644
g73
(dp4645
g81
I4
ssg82
Nsg75
(lp4646
g68
(g84
g70
NtRp4647
(dp4648
g73
(dp4649
sg82
g4643
sg75
(lp4650
g68
(g89
g70
NtRp4651
(dp4652
g73
(dp4653
sg82
g4647
sg75
(lp4654
g68
(g69
g70
NtRp4655
(dp4656
g73
(dp4657
g81
I4
ssg82
g4651
sg75
(lp4658
g68
(g77
g70
NtRp4659
(dp4660
g73
(dp4661
g81
I3
ssg82
Nsg75
(lp4662
g68
(g84
g70
NtRp4663
(dp4664
g73
(dp4665
sg82
g4659
sg75
(lp4666
g68
(g89
g70
NtRp4667
(dp4668
g73
(dp4669
sg82
g4663
sg75
(lp4670
g68
(g69
g70
NtRp4671
(dp4672
g73
(dp4673
g81
I3
ssg82
g4667
sg75
(lp4674
cgluon.languages
lazyT_unpickle
p4675
(S't\x04\x00\x00\x00Home'
tRp4676
asbasbasbag68
(g84
g70
NtRp4677
(dp4678
g73
(dp4679
sg82
g4659
sg75
(lp4680
g68
(g89
g70
NtRp4681
(dp4682
g73
(dp4683
sg82
g4677
sg75
(lp4684
g68
(g69
g70
NtRp4685
(dp4686
g73
(dp4687
g81
I3
ssg82
g4681
sg75
(lp4688
g111
asbasbasbag68
(g84
g70
NtRp4689
(dp4690
g73
(dp4691
sg82
g4659
sg75
(lp4692
g68
(g89
g70
NtRp4693
(dp4694
g73
(dp4695
sg82
g4689
sg75
(lp4696
g68
(g69
g70
NtRp4697
(dp4698
g73
(dp4699
g81
I3
ssg82
g4693
sg75
(lp4700
S'/NewzTrader/default/index'
p4701
asbasbasbag68
(g84
g70
NtRp4702
(dp4703
g73
(dp4704
sg82
g4659
sg75
(lp4705
g68
(g89
g70
NtRp4706
(dp4707
g73
(dp4708
sg82
g4702
sg75
(lp4709
g68
(g69
g70
NtRp4710
(dp4711
g73
(dp4712
g81
I3
ssg82
g4706
sg75
(lp4713
g68
(g77
g70
NtRp4714
(dp4715
g73
(dp4716
g81
I2
ssg82
Nsg75
(lp4717
sbasbasbasbasbasbasbasbag68
(g84
g70
NtRp4718
(dp4719
g73
(dp4720
sg82
g4643
sg75
(lp4721
g68
(g89
g70
NtRp4722
(dp4723
g73
(dp4724
sg82
g4718
sg75
(lp4725
g68
(g69
g70
NtRp4726
(dp4727
g73
(dp4728
g81
I4
ssg82
g4722
sg75
(lp4729
g68
(g77
g70
NtRp4730
(dp4731
g73
(dp4732
g81
I3
ssg82
Nsg75
(lp4733
g68
(g84
g70
NtRp4734
(dp4735
g73
(dp4736
sg82
g4730
sg75
(lp4737
g68
(g89
g70
NtRp4738
(dp4739
g73
(dp4740
sg82
g4734
sg75
(lp4741
g68
(g69
g70
NtRp4742
(dp4743
g73
(dp4744
g81
I3
ssg82
g4738
sg75
(lp4745
g68
(cgluon.html
SPAN
p4746
g70
NtRp4747
(dp4748
g73
(dp4749
g93
S'color:yellow'
p4750
ssg82
Nsg75
(lp4751
g4621
asbasbasbasbag68
(g84
g70
NtRp4752
(dp4753
g73
(dp4754
sg82
g4730
sg75
(lp4755
g68
(g89
g70
NtRp4756
(dp4757
g73
(dp4758
sg82
g4752
sg75
(lp4759
g68
(g69
g70
NtRp4760
(dp4761
g73
(dp4762
g81
I3
ssg82
g4756
sg75
(lp4763
g111
asbasbasbag68
(g84
g70
NtRp4764
(dp4765
g73
(dp4766
sg82
g4730
sg75
(lp4767
g68
(g89
g70
NtRp4768
(dp4769
g73
(dp4770
sg82
g4764
sg75
(lp4771
g68
(g69
g70
NtRp4772
(dp4773
g73
(dp4774
g81
I3
ssg82
g4768
sg75
(lp4775
S'None'
p4776
asbasbasbag68
(g84
g70
NtRp4777
(dp4778
g73
(dp4779
sg82
g4730
sg75
(lp4780
g68
(g89
g70
NtRp4781
(dp4782
g73
(dp4783
sg82
g4777
sg75
(lp4784
g68
(g69
g70
NtRp4785
(dp4786
g73
(dp4787
g81
I3
ssg82
g4781
sg75
(lp4788
g68
(g77
g70
NtRp4789
(dp4790
g73
(dp4791
g81
I2
ssg82
Nsg75
(lp4792
g68
(g84
g70
NtRp4793
(dp4794
g73
(dp4795
sg82
g4789
sg75
(lp4796
g68
(g89
g70
NtRp4797
(dp4798
g73
(dp4799
sg82
g4793
sg75
(lp4800
g68
(g69
g70
NtRp4801
(dp4802
g73
(dp4803
g81
I2
ssg82
g4797
sg75
(lp4804
g68
(g77
g70
NtRp4805
(dp4806
g73
(dp4807
g81
I1
ssg82
Nsg75
(lp4808
g68
(g84
g70
NtRp4809
(dp4810
g73
(dp4811
sg82
g4805
sg75
(lp4812
g68
(g89
g70
NtRp4813
(dp4814
g73
(dp4815
sg82
g4809
sg75
(lp4816
g68
(g69
g70
NtRp4817
(dp4818
g73
(dp4819
g81
I1
ssg82
g4813
sg75
(lp4820
g4675
(S's\x08\x00\x00\x00My Sites'
tRp4821
asbasbasbag68
(g84
g70
NtRp4822
(dp4823
g73
(dp4824
sg82
g4805
sg75
(lp4825
g68
(g89
g70
NtRp4826
(dp4827
g73
(dp4828
sg82
g4822
sg75
(lp4829
g68
(g69
g70
NtRp4830
(dp4831
g73
(dp4832
g81
I1
ssg82
g4826
sg75
(lp4833
I00
asbasbasbag68
(g84
g70
NtRp4834
(dp4835
g73
(dp4836
sg82
g4805
sg75
(lp4837
g68
(g89
g70
NtRp4838
(dp4839
g73
(dp4840
sg82
g4834
sg75
(lp4841
g68
(g69
g70
NtRp4842
(dp4843
g73
(dp4844
g81
I1
ssg82
g4838
sg75
(lp4845
S'/admin/default/site'
p4846
asbasbasbasbasbasbasbag68
(g84
g70
NtRp4847
(dp4848
g73
(dp4849
sg82
g4789
sg75
(lp4850
g68
(g89
g70
NtRp4851
(dp4852
g73
(dp4853
sg82
g4847
sg75
(lp4854
g68
(g69
g70
NtRp4855
(dp4856
g73
(dp4857
g81
I2
ssg82
g4851
sg75
(lp4858
g68
(g77
g70
NtRp4859
(dp4860
g73
(dp4861
g81
I1
ssg82
Nsg75
(lp4862
g68
(g84
g70
NtRp4863
(dp4864
g73
(dp4865
sg82
g4859
sg75
(lp4866
g68
(g89
g70
NtRp4867
(dp4868
g73
(dp4869
sg82
g4863
sg75
(lp4870
g68
(g69
g70
NtRp4871
(dp4872
g73
(dp4873
g81
I1
ssg82
g4867
sg75
(lp4874
g4675
(S's\x08\x00\x00\x00This App'
tRp4875
asbasbasbag68
(g84
g70
NtRp4876
(dp4877
g73
(dp4878
sg82
g4859
sg75
(lp4879
g68
(g89
g70
NtRp4880
(dp4881
g73
(dp4882
sg82
g4876
sg75
(lp4883
g68
(g69
g70
NtRp4884
(dp4885
g73
(dp4886
g81
I1
ssg82
g4880
sg75
(lp4887
I00
asbasbasbag68
(g84
g70
NtRp4888
(dp4889
g73
(dp4890
sg82
g4859
sg75
(lp4891
g68
(g89
g70
NtRp4892
(dp4893
g73
(dp4894
sg82
g4888
sg75
(lp4895
g68
(g69
g70
NtRp4896
(dp4897
g73
(dp4898
g81
I1
ssg82
g4892
sg75
(lp4899
S'/admin/default/design/NewzTrader'
p4900
asbasbasbag68
(g84
g70
NtRp4901
(dp4902
g73
(dp4903
sg82
g4859
sg75
(lp4904
g68
(g89
g70
NtRp4905
(dp4906
g73
(dp4907
sg82
g4901
sg75
(lp4908
g68
(g69
g70
NtRp4909
(dp4910
g73
(dp4911
g81
I1
ssg82
g4905
sg75
(lp4912
(lp4913
(g4675
(S't\n\x00\x00\x00Controller'
tRp4914
I00
S'/admin/default/edit/NewzTrader/controllers/default.py'
tp4915
a(g4675
(S't\x04\x00\x00\x00View'
tRp4916
I00
S'/admin/default/edit/NewzTrader/views/default/index.html'
tp4917
a(g4675
(S't\x06\x00\x00\x00Layout'
tRp4918
I00
S'/admin/default/edit/NewzTrader/views/layout.html'
tp4919
a(g4675
(S't\n\x00\x00\x00Stylesheet'
tRp4920
I00
S'/admin/default/edit/NewzTrader/static/css/web2py.css'
tp4921
a(g4675
(S's\x08\x00\x00\x00DB Model'
tRp4922
I00
S'/admin/default/edit/NewzTrader/models/db.py'
tp4923
a(g4675
(S's\n\x00\x00\x00Menu Model'
tRp4924
I00
S'/admin/default/edit/NewzTrader/models/menu.py'
tp4925
a(g4675
(S't\x08\x00\x00\x00Database'
tRp4926
I00
S'/NewzTrader/appadmin/index'
tp4927
a(g4675
(S't\x06\x00\x00\x00Errors'
tRp4928
I00
S'/admin/default/errors/NewzTrader'
tp4929
a(g4675
(S't\x05\x00\x00\x00About'
tRp4930
I00
S'/admin/default/about/NewzTrader'
tp4931
aasbasbasbasbasbasbasbag68
(g84
g70
NtRp4932
(dp4933
g73
(dp4934
sg82
g4789
sg75
(lp4935
g68
(g89
g70
NtRp4936
(dp4937
g73
(dp4938
sg82
g4932
sg75
(lp4939
g68
(g69
g70
NtRp4940
(dp4941
g73
(dp4942
g81
I2
ssg82
g4936
sg75
(lp4943
g68
(g77
g70
NtRp4944
(dp4945
g73
(dp4946
g81
I1
ssg82
Nsg75
(lp4947
g68
(g84
g70
NtRp4948
(dp4949
g73
(dp4950
sg82
g4944
sg75
(lp4951
g68
(g89
g70
NtRp4952
(dp4953
g73
(dp4954
sg82
g4948
sg75
(lp4955
g68
(g69
g70
NtRp4956
(dp4957
g73
(dp4958
g81
I1
ssg82
g4952
sg75
(lp4959
S'web2py.com'
p4960
asbasbasbag68
(g84
g70
NtRp4961
(dp4962
g73
(dp4963
sg82
g4944
sg75
(lp4964
g68
(g89
g70
NtRp4965
(dp4966
g73
(dp4967
sg82
g4961
sg75
(lp4968
g68
(g69
g70
NtRp4969
(dp4970
g73
(dp4971
g81
I1
ssg82
g4965
sg75
(lp4972
I00
asbasbasbag68
(g84
g70
NtRp4973
(dp4974
g73
(dp4975
sg82
g4944
sg75
(lp4976
g68
(g89
g70
NtRp4977
(dp4978
g73
(dp4979
sg82
g4973
sg75
(lp4980
g68
(g69
g70
NtRp4981
(dp4982
g73
(dp4983
g81
I1
ssg82
g4977
sg75
(lp4984
S'http://www.web2py.com'
p4985
asbasbasbag68
(g84
g70
NtRp4986
(dp4987
g73
(dp4988
sg82
g4944
sg75
(lp4989
g68
(g89
g70
NtRp4990
(dp4991
g73
(dp4992
sg82
g4986
sg75
(lp4993
g68
(g69
g70
NtRp4994
(dp4995
g73
(dp4996
g81
I1
ssg82
g4990
sg75
(lp4997
(lp4998
(g4675
(S't\x08\x00\x00\x00Download'
tRp4999
I00
S'http://www.web2py.com/examples/default/download'
p5000
tp5001
a(g4675
(S't\x07\x00\x00\x00Support'
tRp5002
I00
S'http://www.web2py.com/examples/default/support'
p5003
tp5004
a(g4675
(S't\x04\x00\x00\x00Demo'
tRp5005
I00
S'http://web2py.com/demo_admin'
p5006
tp5007
a(g4675
(S's\x0e\x00\x00\x00Quick Examples'
tRp5008
I00
S'http://web2py.com/examples/default/examples'
p5009
tp5010
a(g4675
(S't\x03\x00\x00\x00FAQ'
tRp5011
I00
S'http://web2py.com/AlterEgo'
p5012
tp5013
a(g4675
(S't\x06\x00\x00\x00Videos'
tRp5014
I00
S'http://www.web2py.com/examples/default/videos/'
p5015
tp5016
a(g4675
(S's\x11\x00\x00\x00Free Applications'
tRp5017
I00
S'http://web2py.com/appliances'
p5018
tp5019
a(g4675
(S't\x07\x00\x00\x00Plugins'
tRp5020
I00
S'http://web2py.com/plugins'
p5021
tp5022
a(g4675
(S't\x07\x00\x00\x00Layouts'
tRp5023
I00
S'http://web2py.com/layouts'
p5024
tp5025
a(g4675
(S't\x07\x00\x00\x00Recipes'
tRp5026
I00
S'http://web2pyslices.com/'
p5027
tp5028
a(g4675
(S't\x08\x00\x00\x00Semantic'
tRp5029
I00
S'http://web2py.com/semantic'
p5030
tp5031
aasbasbasbasbasbasbasbag68
(g84
g70
NtRp5032
(dp5033
g73
(dp5034
sg82
g4789
sg75
(lp5035
g68
(g89
g70
NtRp5036
(dp5037
g73
(dp5038
sg82
g5032
sg75
(lp5039
g68
(g69
g70
NtRp5040
(dp5041
g73
(dp5042
g81
I2
ssg82
g5036
sg75
(lp5043
g68
(g77
g70
NtRp5044
(dp5045
g73
(dp5046
g81
I1
ssg82
Nsg75
(lp5047
g68
(g84
g70
NtRp5048
(dp5049
g73
(dp5050
sg82
g5044
sg75
(lp5051
g68
(g89
g70
NtRp5052
(dp5053
g73
(dp5054
sg82
g5048
sg75
(lp5055
g68
(g69
g70
NtRp5056
(dp5057
g73
(dp5058
g81
I1
ssg82
g5052
sg75
(lp5059
g4675
(S't\r\x00\x00\x00Documentation'
tRp5060
asbasbasbag68
(g84
g70
NtRp5061
(dp5062
g73
(dp5063
sg82
g5044
sg75
(lp5064
g68
(g89
g70
NtRp5065
(dp5066
g73
(dp5067
sg82
g5061
sg75
(lp5068
g68
(g69
g70
NtRp5069
(dp5070
g73
(dp5071
g81
I1
ssg82
g5065
sg75
(lp5072
I00
asbasbasbag68
(g84
g70
NtRp5073
(dp5074
g73
(dp5075
sg82
g5044
sg75
(lp5076
g68
(g89
g70
NtRp5077
(dp5078
g73
(dp5079
sg82
g5073
sg75
(lp5080
g68
(g69
g70
NtRp5081
(dp5082
g73
(dp5083
g81
I1
ssg82
g5077
sg75
(lp5084
S'http://www.web2py.com/book'
p5085
asbasbasbag68
(g84
g70
NtRp5086
(dp5087
g73
(dp5088
sg82
g5044
sg75
(lp5089
g68
(g89
g70
NtRp5090
(dp5091
g73
(dp5092
sg82
g5086
sg75
(lp5093
g68
(g69
g70
NtRp5094
(dp5095
g73
(dp5096
g81
I1
ssg82
g5090
sg75
(lp5097
(lp5098
(g4675
(S't\x07\x00\x00\x00Preface'
tRp5099
I00
S'http://www.web2py.com/book/default/chapter/00'
p5100
tp5101
a(g4675
(S't\x0c\x00\x00\x00Introduction'
tRp5102
I00
S'http://www.web2py.com/book/default/chapter/01'
p5103
tp5104
a(g4675
(S't\x06\x00\x00\x00Python'
tRp5105
I00
S'http://www.web2py.com/book/default/chapter/02'
p5106
tp5107
a(g4675
(S't\x08\x00\x00\x00Overview'
tRp5108
I00
S'http://www.web2py.com/book/default/chapter/03'
p5109
tp5110
a(g4675
(S's\x08\x00\x00\x00The Core'
tRp5111
I00
S'http://www.web2py.com/book/default/chapter/04'
p5112
tp5113
a(g4675
(S's\t\x00\x00\x00The Views'
tRp5114
I00
S'http://www.web2py.com/book/default/chapter/05'
p5115
tp5116
a(g4675
(S't\x08\x00\x00\x00Database'
tRp5117
I00
S'http://www.web2py.com/book/default/chapter/06'
p5118
tp5119
a(g4675
(S's\x14\x00\x00\x00Forms and Validators'
tRp5120
I00
S'http://www.web2py.com/book/default/chapter/07'
p5121
tp5122
a(g4675
(S's\r\x00\x00\x00Email and SMS'
tRp5123
I00
S'http://www.web2py.com/book/default/chapter/08'
p5124
tp5125
a(g4675
(S's\x0e\x00\x00\x00Access Control'
tRp5126
I00
S'http://www.web2py.com/book/default/chapter/09'
p5127
tp5128
a(g4675
(S't\x08\x00\x00\x00Services'
tRp5129
I00
S'http://www.web2py.com/book/default/chapter/10'
p5130
tp5131
a(g4675
(S's\x0c\x00\x00\x00Ajax Recipes'
tRp5132
I00
S'http://www.web2py.com/book/default/chapter/11'
p5133
tp5134
a(g4675
(S's\x16\x00\x00\x00Components and Plugins'
tRp5135
I00
S'http://www.web2py.com/book/default/chapter/12'
p5136
tp5137
a(g4675
(S's\x12\x00\x00\x00Deployment Recipes'
tRp5138
I00
S'http://www.web2py.com/book/default/chapter/13'
p5139
tp5140
a(g4675
(S's\r\x00\x00\x00Other Recipes'
tRp5141
I00
S'http://www.web2py.com/book/default/chapter/14'
p5142
tp5143
a(g4675
(S's\r\x00\x00\x00Buy this book'
tRp5144
I00
S'http://stores.lulu.com/web2py'
p5145
tp5146
aasbasbasbasbasbasbasbag68
(g84
g70
NtRp5147
(dp5148
g73
(dp5149
sg82
g4789
sg75
(lp5150
g68
(g89
g70
NtRp5151
(dp5152
g73
(dp5153
sg82
g5147
sg75
(lp5154
g68
(g69
g70
NtRp5155
(dp5156
g73
(dp5157
g81
I2
ssg82
g5151
sg75
(lp5158
g68
(g77
g70
NtRp5159
(dp5160
g73
(dp5161
g81
I1
ssg82
Nsg75
(lp5162
g68
(g84
g70
NtRp5163
(dp5164
g73
(dp5165
sg82
g5159
sg75
(lp5166
g68
(g89
g70
NtRp5167
(dp5168
g73
(dp5169
sg82
g5163
sg75
(lp5170
g68
(g69
g70
NtRp5171
(dp5172
g73
(dp5173
g81
I1
ssg82
g5167
sg75
(lp5174
g4675
(S't\t\x00\x00\x00Community'
tRp5175
asbasbasbag68
(g84
g70
NtRp5176
(dp5177
g73
(dp5178
sg82
g5159
sg75
(lp5179
g68
(g89
g70
NtRp5180
(dp5181
g73
(dp5182
sg82
g5176
sg75
(lp5183
g68
(g69
g70
NtRp5184
(dp5185
g73
(dp5186
g81
I1
ssg82
g5180
sg75
(lp5187
I00
asbasbasbag68
(g84
g70
NtRp5188
(dp5189
g73
(dp5190
sg82
g5159
sg75
(lp5191
g68
(g89
g70
NtRp5192
(dp5193
g73
(dp5194
sg82
g5188
sg75
(lp5195
g68
(g69
g70
NtRp5196
(dp5197
g73
(dp5198
g81
I1
ssg82
g5192
sg75
(lp5199
Nasbasbasbag68
(g84
g70
NtRp5200
(dp5201
g73
(dp5202
sg82
g5159
sg75
(lp5203
g68
(g89
g70
NtRp5204
(dp5205
g73
(dp5206
sg82
g5200
sg75
(lp5207
g68
(g69
g70
NtRp5208
(dp5209
g73
(dp5210
g81
I1
ssg82
g5204
sg75
(lp5211
(lp5212
(g4675
(S't\x06\x00\x00\x00Groups'
tRp5213
I00
S'http://www.web2py.com/examples/default/usergroups'
p5214
tp5215
a(g4675
(S't\x07\x00\x00\x00Twitter'
tRp5216
I00
S'http://twitter.com/web2py'
p5217
tp5218
a(g4675
(S's\t\x00\x00\x00Live Chat'
tRp5219
I00
S'http://webchat.freenode.net/?channels=web2py'
p5220
tp5221
aasbasbasbasbasbasbasbag68
(g84
g70
NtRp5222
(dp5223
g73
(dp5224
sg82
g4789
sg75
(lp5225
g68
(g89
g70
NtRp5226
(dp5227
g73
(dp5228
sg82
g5222
sg75
(lp5229
g68
(g69
g70
NtRp5230
(dp5231
g73
(dp5232
g81
I2
ssg82
g5226
sg75
(lp5233
g68
(g77
g70
NtRp5234
(dp5235
g73
(dp5236
g81
I1
ssg82
Nsg75
(lp5237
g68
(g84
g70
NtRp5238
(dp5239
g73
(dp5240
sg82
g5234
sg75
(lp5241
g68
(g89
g70
NtRp5242
(dp5243
g73
(dp5244
sg82
g5238
sg75
(lp5245
g68
(g69
g70
NtRp5246
(dp5247
g73
(dp5248
g81
I1
ssg82
g5242
sg75
(lp5249
g4675
(S't\x07\x00\x00\x00Plugins'
tRp5250
asbasbasbag68
(g84
g70
NtRp5251
(dp5252
g73
(dp5253
sg82
g5234
sg75
(lp5254
g68
(g89
g70
NtRp5255
(dp5256
g73
(dp5257
sg82
g5251
sg75
(lp5258
g68
(g69
g70
NtRp5259
(dp5260
g73
(dp5261
g81
I1
ssg82
g5255
sg75
(lp5262
I00
asbasbasbag68
(g84
g70
NtRp5263
(dp5264
g73
(dp5265
sg82
g5234
sg75
(lp5266
g68
(g89
g70
NtRp5267
(dp5268
g73
(dp5269
sg82
g5263
sg75
(lp5270
g68
(g69
g70
NtRp5271
(dp5272
g73
(dp5273
g81
I1
ssg82
g5267
sg75
(lp5274
Nasbasbasbag68
(g84
g70
NtRp5275
(dp5276
g73
(dp5277
sg82
g5234
sg75
(lp5278
g68
(g89
g70
NtRp5279
(dp5280
g73
(dp5281
sg82
g5275
sg75
(lp5282
g68
(g69
g70
NtRp5283
(dp5284
g73
(dp5285
g81
I1
ssg82
g5279
sg75
(lp5286
(lp5287
(S'plugin_wiki'
p5288
I00
S'http://web2py.com/examples/default/download'
p5289
tp5290
a(g4675
(S's\r\x00\x00\x00Other Plugins'
tRp5291
I00
g5021
tp5292
a(g4675
(S's\x0e\x00\x00\x00Layout Plugins'
tRp5293
I00
g5024
tp5294
aasbasbasbasbasbasbasbasbasbasbasbasbasbasbasbasbasbasbasbag68
(g84
g70
NtRp5295
(dp5296
g73
(dp5297
sg82
g4119
sg75
(lp5298
g68
(g89
g70
NtRp5299
(dp5300
g73
(dp5301
g93
g94
ssg82
g5295
sg75
(lp5302
S'meta'
p5303
asbag68
(g89
g70
NtRp5304
(dp5305
g73
(dp5306
g100
g101
ssg82
g5295
sg75
(lp5307
S':'
asbag68
(g89
g70
NtRp5308
(dp5309
g73
(dp5310
sg82
g5295
sg75
(lp5311
g68
(g69
g70
NtRp5312
(dp5313
g73
(dp5314
g81
I5
ssg82
g5308
sg75
(lp5315
g68
(g77
g70
NtRp5316
(dp5317
g73
(dp5318
g81
I4
ssg82
Nsg75
(lp5319
g68
(g84
g70
NtRp5320
(dp5321
g73
(dp5322
sg82
g5316
sg75
(lp5323
g68
(g89
g70
NtRp5324
(dp5325
g73
(dp5326
g93
g94
ssg82
g5320
sg75
(lp5327
S'author'
p5328
asbag68
(g89
g70
NtRp5329
(dp5330
g73
(dp5331
g100
g101
ssg82
g5320
sg75
(lp5332
S':'
asbag68
(g89
g70
NtRp5333
(dp5334
g73
(dp5335
sg82
g5320
sg75
(lp5336
g68
(g69
g70
NtRp5337
(dp5338
g73
(dp5339
g81
I4
ssg82
g5333
sg75
(lp5340
S'William Lyon <lyonwj@gmail.cmo>'
p5341
asbasbasbag68
(g84
g70
NtRp5342
(dp5343
g73
(dp5344
sg82
g5316
sg75
(lp5345
g68
(g89
g70
NtRp5346
(dp5347
g73
(dp5348
g93
g94
ssg82
g5342
sg75
(lp5349
S'copyright'
p5350
asbag68
(g89
g70
NtRp5351
(dp5352
g73
(dp5353
g100
g101
ssg82
g5342
sg75
(lp5354
S':'
asbag68
(g89
g70
NtRp5355
(dp5356
g73
(dp5357
sg82
g5342
sg75
(lp5358
g68
(g69
g70
NtRp5359
(dp5360
g73
(dp5361
g81
I4
ssg82
g5355
sg75
(lp5362
S'Copyright William Lyon 2012'
p5363
asbasbasbag68
(g84
g70
NtRp5364
(dp5365
g73
(dp5366
sg82
g5316
sg75
(lp5367
g68
(g89
g70
NtRp5368
(dp5369
g73
(dp5370
g93
g94
ssg82
g5364
sg75
(lp5371
S'description'
p5372
asbag68
(g89
g70
NtRp5373
(dp5374
g73
(dp5375
g100
g101
ssg82
g5364
sg75
(lp5376
S':'
asbag68
(g89
g70
NtRp5377
(dp5378
g73
(dp5379
sg82
g5364
sg75
(lp5380
g68
(g69
g70
NtRp5381
(dp5382
g73
(dp5383
g81
I4
ssg82
g5377
sg75
(lp5384
S'Autonomous Trading Agent Using Natural Language Processing Of News Headlines'
p5385
asbasbasbag68
(g84
g70
NtRp5386
(dp5387
g73
(dp5388
sg82
g5316
sg75
(lp5389
g68
(g89
g70
NtRp5390
(dp5391
g73
(dp5392
g93
g94
ssg82
g5386
sg75
(lp5393
S'generator'
p5394
asbag68
(g89
g70
NtRp5395
(dp5396
g73
(dp5397
g100
g101
ssg82
g5386
sg75
(lp5398
S':'
asbag68
(g89
g70
NtRp5399
(dp5400
g73
(dp5401
sg82
g5386
sg75
(lp5402
g68
(g69
g70
NtRp5403
(dp5404
g73
(dp5405
g81
I4
ssg82
g5399
sg75
(lp5406
S'Web2py Web Framework'
p5407
asbasbasbag68
(g84
g70
NtRp5408
(dp5409
g73
(dp5410
sg82
g5316
sg75
(lp5411
g68
(g89
g70
NtRp5412
(dp5413
g73
(dp5414
g93
g94
ssg82
g5408
sg75
(lp5415
S'keywords'
p5416
asbag68
(g89
g70
NtRp5417
(dp5418
g73
(dp5419
g100
g101
ssg82
g5408
sg75
(lp5420
S':'
asbag68
(g89
g70
NtRp5421
(dp5422
g73
(dp5423
sg82
g5408
sg75
(lp5424
g68
(g69
g70
NtRp5425
(dp5426
g73
(dp5427
g81
I4
ssg82
g5421
sg75
(lp5428
S'python, AI, natural language processing'
p5429
asbasbasbasbasbasbasbag68
(g84
g70
NtRp5430
(dp5431
g73
(dp5432
sg82
g4119
sg75
(lp5433
g68
(g89
g70
NtRp5434
(dp5435
g73
(dp5436
g93
g94
ssg82
g5430
sg75
(lp5437
S'postprocessing'
p5438
asbag68
(g89
g70
NtRp5439
(dp5440
g73
(dp5441
g100
g101
ssg82
g5430
sg75
(lp5442
S':'
asbag68
(g89
g70
NtRp5443
(dp5444
g73
(dp5445
sg82
g5430
sg75
(lp5446
g68
(g69
g70
NtRp5447
(dp5448
g73
(dp5449
g81
I5
ssg82
g5443
sg75
(lp5450
g68
(g77
g70
NtRp5451
(dp5452
g73
(dp5453
g81
I4
ssg82
Nsg75
(lp5454
sbasbasbasbag68
(g84
g70
NtRp5455
(dp5456
g73
(dp5457
sg82
g4119
sg75
(lp5458
g68
(g89
g70
NtRp5459
(dp5460
g73
(dp5461
g93
g94
ssg82
g5455
sg75
(lp5462
S'session_file'
p5463
asbag68
(g89
g70
NtRp5464
(dp5465
g73
(dp5466
g100
g101
ssg82
g5455
sg75
(lp5467
S':'
asbag68
(g89
g70
NtRp5468
(dp5469
g73
(dp5470
sg82
g5455
sg75
(lp5471
g68
(g69
g70
NtRp5472
(dp5473
g73
(dp5474
g81
I5
ssg82
g5468
sg75
(lp5475
S"<open file '/home/lyonwj/webapps/web2py/web2py/applications/NewzTrader/sessions/150.131.118.156-b3c924a2-4514-44dd-83e7-d6a94defa956', mode 'rb+' at 0x7fb8d889f030>"
p5476
asbasbasbag68
(g84
g70
NtRp5477
(dp5478
g73
(dp5479
sg82
g4119
sg75
(lp5480
g68
(g89
g70
NtRp5481
(dp5482
g73
(dp5483
g93
g94
ssg82
g5477
sg75
(lp5484
S'session_filename'
p5485
asbag68
(g89
g70
NtRp5486
(dp5487
g73
(dp5488
g100
g101
ssg82
g5477
sg75
(lp5489
S':'
asbag68
(g89
g70
NtRp5490
(dp5491
g73
(dp5492
sg82
g5477
sg75
(lp5493
g68
(g69
g70
NtRp5494
(dp5495
g73
(dp5496
g81
I5
ssg82
g5490
sg75
(lp5497
S'/home/lyonwj/webapps/web2py/web2py/applications/NewzTrader/sessions/150.131.118.156-b3c924a2-4514-44dd-83e7-d6a94defa956'
p5498
asbasbasbag68
(g84
g70
NtRp5499
(dp5500
g73
(dp5501
sg82
g4119
sg75
(lp5502
g68
(g89
g70
NtRp5503
(dp5504
g73
(dp5505
g93
g94
ssg82
g5499
sg75
(lp5506
S'session_id'
p5507
asbag68
(g89
g70
NtRp5508
(dp5509
g73
(dp5510
g100
g101
ssg82
g5499
sg75
(lp5511
S':'
asbag68
(g89
g70
NtRp5512
(dp5513
g73
(dp5514
sg82
g5499
sg75
(lp5515
g68
(g69
g70
NtRp5516
(dp5517
g73
(dp5518
g81
I5
ssg82
g5512
sg75
(lp5519
S'150.131.118.156-b3c924a2-4514-44dd-83e7-d6a94defa956'
p5520
asbasbasbag68
(g84
g70
NtRp5521
(dp5522
g73
(dp5523
sg82
g4119
sg75
(lp5524
g68
(g89
g70
NtRp5525
(dp5526
g73
(dp5527
g93
g94
ssg82
g5521
sg75
(lp5528
S'session_id_name'
p5529
asbag68
(g89
g70
NtRp5530
(dp5531
g73
(dp5532
g100
g101
ssg82
g5521
sg75
(lp5533
S':'
asbag68
(g89
g70
NtRp5534
(dp5535
g73
(dp5536
sg82
g5521
sg75
(lp5537
g68
(g69
g70
NtRp5538
(dp5539
g73
(dp5540
g81
I5
ssg82
g5534
sg75
(lp5541
g4176
asbasbasbag68
(g84
g70
NtRp5542
(dp5543
g73
(dp5544
sg82
g4119
sg75
(lp5545
g68
(g89
g70
NtRp5546
(dp5547
g73
(dp5548
g93
g94
ssg82
g5542
sg75
(lp5549
S'session_locked'
p5550
asbag68
(g89
g70
NtRp5551
(dp5552
g73
(dp5553
g100
g101
ssg82
g5542
sg75
(lp5554
S':'
asbag68
(g89
g70
NtRp5555
(dp5556
g73
(dp5557
sg82
g5542
sg75
(lp5558
g68
(g69
g70
NtRp5559
(dp5560
g73
(dp5561
g81
I5
ssg82
g5555
sg75
(lp5562
g2191
asbasbasbag68
(g84
g70
NtRp5563
(dp5564
g73
(dp5565
sg82
g4119
sg75
(lp5566
g68
(g89
g70
NtRp5567
(dp5568
g73
(dp5569
g93
g94
ssg82
g5563
sg75
(lp5570
S'session_new'
p5571
asbag68
(g89
g70
NtRp5572
(dp5573
g73
(dp5574
g100
g101
ssg82
g5563
sg75
(lp5575
S':'
asbag68
(g89
g70
NtRp5576
(dp5577
g73
(dp5578
sg82
g5563
sg75
(lp5579
g68
(g69
g70
NtRp5580
(dp5581
g73
(dp5582
g81
I5
ssg82
g5576
sg75
(lp5583
g111
asbasbasbag68
(g84
g70
NtRp5584
(dp5585
g73
(dp5586
sg82
g4119
sg75
(lp5587
g68
(g89
g70
NtRp5588
(dp5589
g73
(dp5590
g93
g94
ssg82
g5584
sg75
(lp5591
S'status'
p5592
asbag68
(g89
g70
NtRp5593
(dp5594
g73
(dp5595
g100
g101
ssg82
g5584
sg75
(lp5596
S':'
asbag68
(g89
g70
NtRp5597
(dp5598
g73
(dp5599
sg82
g5584
sg75
(lp5600
g68
(g69
g70
NtRp5601
(dp5602
g73
(dp5603
g81
I5
ssg82
g5597
sg75
(lp5604
S'200'
p5605
asbasbasbag68
(g84
g70
NtRp5606
(dp5607
g73
(dp5608
sg82
g4119
sg75
(lp5609
g68
(g89
g70
NtRp5610
(dp5611
g73
(dp5612
g93
g94
ssg82
g5606
sg75
(lp5613
S'subtitle'
p5614
asbag68
(g89
g70
NtRp5615
(dp5616
g73
(dp5617
g100
g101
ssg82
g5606
sg75
(lp5618
S':'
asbag68
(g89
g70
NtRp5619
(dp5620
g73
(dp5621
sg82
g5606
sg75
(lp5622
g68
(g69
g70
NtRp5623
(dp5624
g73
(dp5625
g81
I5
ssg82
g5619
sg75
(lp5626
g4675
(S'sL\x00\x00\x00Autonomous Trading Agent Using Natural Language Processing Of News Headlines'
tRp5627
asbasbasbag68
(g84
g70
NtRp5628
(dp5629
g73
(dp5630
sg82
g4119
sg75
(lp5631
g68
(g89
g70
NtRp5632
(dp5633
g73
(dp5634
g93
g94
ssg82
g5628
sg75
(lp5635
S'title'
p5636
asbag68
(g89
g70
NtRp5637
(dp5638
g73
(dp5639
g100
g101
ssg82
g5628
sg75
(lp5640
S':'
asbag68
(g89
g70
NtRp5641
(dp5642
g73
(dp5643
sg82
g5628
sg75
(lp5644
g68
(g69
g70
NtRp5645
(dp5646
g73
(dp5647
g81
I5
ssg82
g5641
sg75
(lp5648
S'NewzTrader'
p5649
asbasbasbag68
(g84
g70
NtRp5650
(dp5651
g73
(dp5652
sg82
g4119
sg75
(lp5653
g68
(g89
g70
NtRp5654
(dp5655
g73
(dp5656
g93
g94
ssg82
g5650
sg75
(lp5657
g2811
asbag68
(g89
g70
NtRp5658
(dp5659
g73
(dp5660
g100
g101
ssg82
g5650
sg75
(lp5661
S':'
asbag68
(g89
g70
NtRp5662
(dp5663
g73
(dp5664
sg82
g5650
sg75
(lp5665
g68
(g69
g70
NtRp5666
(dp5667
g73
(dp5668
g81
I5
ssg82
g5662
sg75
(lp5669
g2824
asbasbasbag68
(g84
g70
NtRp5670
(dp5671
g73
(dp5672
sg82
g4119
sg75
(lp5673
g68
(g89
g70
NtRp5674
(dp5675
g73
(dp5676
g93
g94
ssg82
g5670
sg75
(lp5677
S'view'
p5678
asbag68
(g89
g70
NtRp5679
(dp5680
g73
(dp5681
g100
g101
ssg82
g5670
sg75
(lp5682
S':'
asbag68
(g89
g70
NtRp5683
(dp5684
g73
(dp5685
sg82
g5670
sg75
(lp5686
g68
(g69
g70
NtRp5687
(dp5688
g73
(dp5689
g81
I5
ssg82
g5683
sg75
(lp5690
S'default/index.html'
p5691
asbasbasbasbasbsS'locals'
p5692
(dp5693
g4
S"'/home/lyonwj/webapps/web2py/web2py/applications/NewzTrader/views/default/index.html'"
p5694
sg6
S'r"left_sidebar_enabled,right_sidebar_enabled=False...ponse.write(\'\\n</body>\\n</html>\\n\', escape=False)"'
p5695
sssS'traceback'
p5696
S'Traceback (most recent call last):\n  File "/home/lyonwj/webapps/web2py/web2py/gluon/restricted.py", line 204, in restricted\n    ccode = compile2(code,layer)\n  File "/home/lyonwj/webapps/web2py/web2py/gluon/restricted.py", line 189, in compile2\n    return compile(code.rstrip().replace(\'\\r\\n\',\'\\n\')+\'\\n\', layer, \'exec\')\n  File "/home/lyonwj/webapps/web2py/web2py/applications/NewzTrader/views/default/index.html", line 94\n    else:\n       ^\nSyntaxError: invalid syntax\n'
p5697
s.