(dp1
S'output'
p2
S"<type 'exceptions.NameError'> global name 'pickle' is not defined"
p3
sS'layer'
p4
S'/home/lyonwj/webapps/web2py/web2py/applications/NewzTrader/controllers/default.py'
p5
sS'code'
p6
S'# -*- coding: utf-8 -*-\n# this file is released under public domain and you can use without limitations\n\n#########################################################################\n## This is a samples controller\n## - index is the default action of any application\n## - user is required for authentication and authorization\n## - download is for downloading files uploaded in the db (does streaming)\n## - call exposes all registered services (none by default)\n#########################################################################\nfrom lxml import etree\nimport os\nimport nltk as nltk\nimport datetime\nfrom datetime import datetime\nfrom datetime import date\nfrom datetime import timedelta\nfrom dateutil.parser import parse\n\ndef bag_of_words(words):\n        return dict([(word, True) for word in words if word[0].isalpha()])\n        \ndef index():\n    \n    #response.flash = "Welcome to web2py!"\n    todaysNews = get_headlines(date.today())\n    newsCats = []\n    nb_classifer = get_classifier()\n    \n    for headline in todaysNews:\n        newsCats.append(nb_classifier.classify(bag_of_words(headline)))\n    \n    return dict(news=todaysNews, cats=newsCats)\n\ndef get_classifier():\n\n    fp = os.path.join(request.folder,\'private\',\'classifier.pkl\')\n    pkl_file = open(fp, \'rb\')\n    classifier = pickle.load(pkl_file)\n    pkl_file.close()\n    return classifier\n    \ndef daterange(start_date, end_date):\n    for n in range(int ((end_date - start_date).days)):\n        yield start_date + timedelta(n)\n        \ndef only_alphanum(s):\n    #s = unicode(s, "utf-8")\n    return \' \'.join(c for c in s.split() if c.isalnum())\ndef only_alpha(s):\n    return \' \'.join(c for c in s.split() if c.isalpha())\ndef removeNonAscii(s): return "".join(i for i in s if ord(i)<128)\n\ndef get_headlines(newsDate):\n    \n    news=[]\n    year = newsDate.year\n    month = newsDate.month\n    day = newsDate.day\n    #news[newsDate]=[]\n    path = "http://api.newscred.com/articles?access_key=c4bcc3f7c9bf9ec159f51da0a86ca658&sources=104afa30d811d37a5582a39e1662a311&pagesize=99&from_date=%d-%d-%d&to_date=%d-%d-%d 23:59:59" % (year, month, day, year, month, day)\n    while True:\n        try:\n            root = etree.parse(path)\n            break\n        except XMLSyntaxError:\n            pass\n    myRoot = root.getroot()\n\n    #news[date(year, month, day)]=[]\n    #descs[date(year, month, day)]=[]\n    for element in myRoot.iter("article"):\n        #for item in element.iter("description"):\n         #   desc = item.text\n        for item in element.iter("title"):\n            title = item.text\n        for item in element.iter("created_at"):\n            pubDate = parse(item.text)\n    \n        news.append(only_alphanum(removeNonAscii(title)))\n    return news\n    \ndef user():\n    """\n    exposes:\n    http://..../[app]/default/user/login\n    http://..../[app]/default/user/logout\n    http://..../[app]/default/user/register\n    http://..../[app]/default/user/profile\n    http://..../[app]/default/user/retrieve_password\n    http://..../[app]/default/user/change_password\n    use @auth.requires_login()\n        @auth.requires_membership(\'group name\')\n        @auth.requires_permission(\'read\',\'table name\',record_id)\n    to decorate functions that need access control\n    """\n    return dict(form=auth())\n\n\ndef download():\n    """\n    allows downloading of uploaded files\n    http://..../[app]/default/download/[filename]\n    """\n    return response.download(request,db)\n\n\ndef call():\n    """\n    exposes services. for example:\n    http://..../[app]/default/call/jsonrpc\n    decorate with @services.jsonrpc the functions to expose\n    supports xml, json, xmlrpc, jsonrpc, amfrpc, rss, csv\n    """\n    return service()\n\n\n@auth.requires_signature()\ndef data():\n    """\n    http://..../[app]/default/data/tables\n    http://..../[app]/default/data/create/[table]\n    http://..../[app]/default/data/read/[table]/[id]\n    http://..../[app]/default/data/update/[table]/[id]\n    http://..../[app]/default/data/delete/[table]/[id]\n    http://..../[app]/default/data/select/[table]\n    http://..../[app]/default/data/search/[table]\n    but URLs must be signed, i.e. linked with\n      A(\'table\',_href=URL(\'data/tables\',user_signature=True))\n    or with the signed load operator\n      LOAD(\'default\',\'data.load\',args=\'tables\',ajax=True,user_signature=True)\n    """\n    return dict(form=crud())\n\nresponse._vars=response._caller(index)\n'
p7
sS'snapshot'
p8
(dp9
S'exception'
p10
(dp11
S'__hash__'
p12
S"<method-wrapper '__hash__' of exceptions.NameError object>"
p13
sS'__setattr__'
p14
S"<method-wrapper '__setattr__' of exceptions.NameError object>"
p15
sS'__reduce_ex__'
p16
S'<built-in method __reduce_ex__ of exceptions.NameError object>'
p17
sS'__getslice__'
p18
S"<method-wrapper '__getslice__' of exceptions.NameError object>"
p19
sS'__getitem__'
p20
S"<method-wrapper '__getitem__' of exceptions.NameError object>"
p21
sS'__setstate__'
p22
S'<built-in method __setstate__ of exceptions.NameError object>'
p23
sS'args'
p24
S'("global name \'pickle\' is not defined",)'
p25
sS'__reduce__'
p26
S'<built-in method __reduce__ of exceptions.NameError object>'
p27
sS'__str__'
p28
S"<method-wrapper '__str__' of exceptions.NameError object>"
p29
sS'__format__'
p30
S'<built-in method __format__ of exceptions.NameError object>'
p31
sS'__getattribute__'
p32
S"<method-wrapper '__getattribute__' of exceptions.NameError object>"
p33
sS'__class__'
p34
S"<type 'exceptions.NameError'>"
p35
sS'__unicode__'
p36
S'<built-in method __unicode__ of exceptions.NameError object>'
p37
sS'__delattr__'
p38
S"<method-wrapper '__delattr__' of exceptions.NameError object>"
p39
sS'__subclasshook__'
p40
S'<built-in method __subclasshook__ of type object>'
p41
sS'__repr__'
p42
S"<method-wrapper '__repr__' of exceptions.NameError object>"
p43
sS'__dict__'
p44
S'{}'
p45
sS'__sizeof__'
p46
S'<built-in method __sizeof__ of exceptions.NameError object>'
p47
sS'__doc__'
p48
S"'Name not found globally.'"
p49
sS'__init__'
p50
S"<method-wrapper '__init__' of exceptions.NameError object>"
p51
sS'__new__'
p52
S'<built-in method __new__ of type object>'
p53
ssS'evalue'
p54
S"global name 'pickle' is not defined"
p55
sS'request'
p56
ccopy_reg
_reconstructor
p57
(cgluon.html
BEAUTIFY
p58
c__builtin__
object
p59
NtRp60
(dp61
S'attributes'
p62
(dp63
sS'components'
p64
(lp65
g57
(cgluon.html
TABLE
p66
g59
NtRp67
(dp68
g62
(dp69
S'level'
p70
I5
ssS'parent'
p71
Nsg64
(lp72
g57
(cgluon.html
TR
p73
g59
NtRp74
(dp75
g62
(dp76
sg71
g67
sg64
(lp77
g57
(cgluon.html
TD
p78
g59
NtRp79
(dp80
g62
(dp81
S'_style'
p82
S'font-weight:bold;vertical-align:top'
p83
ssg71
g74
sg64
(lp84
S'ajax'
p85
asbag57
(g78
g59
NtRp86
(dp87
g62
(dp88
S'_valign'
p89
S'top'
p90
ssg71
g74
sg64
(lp91
S':'
asbag57
(g78
g59
NtRp92
(dp93
g62
(dp94
sg71
g74
sg64
(lp95
g57
(g58
g59
NtRp96
(dp97
g62
(dp98
g70
I5
ssg71
g92
sg64
(lp99
S'False'
p100
asbasbasbag57
(g73
g59
NtRp101
(dp102
g62
(dp103
sg71
g67
sg64
(lp104
g57
(g78
g59
NtRp105
(dp106
g62
(dp107
g82
g83
ssg71
g101
sg64
(lp108
S'application'
p109
asbag57
(g78
g59
NtRp110
(dp111
g62
(dp112
g89
g90
ssg71
g101
sg64
(lp113
S':'
asbag57
(g78
g59
NtRp114
(dp115
g62
(dp116
sg71
g101
sg64
(lp117
g57
(g58
g59
NtRp118
(dp119
g62
(dp120
g70
I5
ssg71
g114
sg64
(lp121
S'NewzTrader'
p122
asbasbasbag57
(g73
g59
NtRp123
(dp124
g62
(dp125
sg71
g67
sg64
(lp126
g57
(g78
g59
NtRp127
(dp128
g62
(dp129
g82
g83
ssg71
g123
sg64
(lp130
g24
asbag57
(g78
g59
NtRp131
(dp132
g62
(dp133
g89
g90
ssg71
g123
sg64
(lp134
S':'
asbag57
(g78
g59
NtRp135
(dp136
g62
(dp137
sg71
g123
sg64
(lp138
g57
(g58
g59
NtRp139
(dp140
g62
(dp141
g70
I5
ssg71
g135
sg64
(lp142
g57
(g66
g59
NtRp143
(dp144
g62
(dp145
g70
I4
ssg71
Nsg64
(lp146
sbasbasbasbag57
(g73
g59
NtRp147
(dp148
g62
(dp149
sg71
g67
sg64
(lp150
g57
(g78
g59
NtRp151
(dp152
g62
(dp153
g82
g83
ssg71
g147
sg64
(lp154
S'body'
p155
asbag57
(g78
g59
NtRp156
(dp157
g62
(dp158
g89
g90
ssg71
g147
sg64
(lp159
S':'
asbag57
(g78
g59
NtRp160
(dp161
g62
(dp162
sg71
g147
sg64
(lp163
g57
(g58
g59
NtRp164
(dp165
g62
(dp166
g70
I5
ssg71
g160
sg64
(lp167
S'<cStringIO.StringO object at 0x7fea3617c998>'
p168
asbasbasbag57
(g73
g59
NtRp169
(dp170
g62
(dp171
sg71
g67
sg64
(lp172
g57
(g78
g59
NtRp173
(dp174
g62
(dp175
g82
g83
ssg71
g169
sg64
(lp176
S'client'
p177
asbag57
(g78
g59
NtRp178
(dp179
g62
(dp180
g89
g90
ssg71
g169
sg64
(lp181
S':'
asbag57
(g78
g59
NtRp182
(dp183
g62
(dp184
sg71
g169
sg64
(lp185
g57
(g58
g59
NtRp186
(dp187
g62
(dp188
g70
I5
ssg71
g182
sg64
(lp189
S'184.166.90.89'
p190
asbasbasbag57
(g73
g59
NtRp191
(dp192
g62
(dp193
sg71
g67
sg64
(lp194
g57
(g78
g59
NtRp195
(dp196
g62
(dp197
g82
g83
ssg71
g191
sg64
(lp198
S'controller'
p199
asbag57
(g78
g59
NtRp200
(dp201
g62
(dp202
g89
g90
ssg71
g191
sg64
(lp203
S':'
asbag57
(g78
g59
NtRp204
(dp205
g62
(dp206
sg71
g191
sg64
(lp207
g57
(g58
g59
NtRp208
(dp209
g62
(dp210
g70
I5
ssg71
g204
sg64
(lp211
S'default'
p212
asbasbasbag57
(g73
g59
NtRp213
(dp214
g62
(dp215
sg71
g67
sg64
(lp216
g57
(g78
g59
NtRp217
(dp218
g62
(dp219
g82
g83
ssg71
g213
sg64
(lp220
S'cookies'
p221
asbag57
(g78
g59
NtRp222
(dp223
g62
(dp224
g89
g90
ssg71
g213
sg64
(lp225
S':'
asbag57
(g78
g59
NtRp226
(dp227
g62
(dp228
sg71
g213
sg64
(lp229
g57
(g58
g59
NtRp230
(dp231
g62
(dp232
g70
I5
ssg71
g226
sg64
(lp233
g57
(g66
g59
NtRp234
(dp235
g62
(dp236
g70
I4
ssg71
Nsg64
(lp237
g57
(g73
g59
NtRp238
(dp239
g62
(dp240
sg71
g234
sg64
(lp241
g57
(g78
g59
NtRp242
(dp243
g62
(dp244
g82
g83
ssg71
g238
sg64
(lp245
S'session_id_admin'
p246
asbag57
(g78
g59
NtRp247
(dp248
g62
(dp249
g89
g90
ssg71
g238
sg64
(lp250
S':'
asbag57
(g78
g59
NtRp251
(dp252
g62
(dp253
sg71
g238
sg64
(lp254
g57
(g58
g59
NtRp255
(dp256
g62
(dp257
g70
I4
ssg71
g251
sg64
(lp258
g57
(g66
g59
NtRp259
(dp260
g62
(dp261
g70
I3
ssg71
Nsg64
(lp262
g57
(g73
g59
NtRp263
(dp264
g62
(dp265
sg71
g259
sg64
(lp266
g57
(g78
g59
NtRp267
(dp268
g62
(dp269
g82
g83
ssg71
g263
sg64
(lp270
S'comment'
p271
asbag57
(g78
g59
NtRp272
(dp273
g62
(dp274
g89
g90
ssg71
g263
sg64
(lp275
S':'
asbag57
(g78
g59
NtRp276
(dp277
g62
(dp278
sg71
g263
sg64
(lp279
g57
(g58
g59
NtRp280
(dp281
g62
(dp282
g70
I3
ssg71
g276
sg64
(lp283
S''
asbasbasbag57
(g73
g59
NtRp284
(dp285
g62
(dp286
sg71
g259
sg64
(lp287
g57
(g78
g59
NtRp288
(dp289
g62
(dp290
g82
g83
ssg71
g284
sg64
(lp291
S'domain'
p292
asbag57
(g78
g59
NtRp293
(dp294
g62
(dp295
g89
g90
ssg71
g284
sg64
(lp296
S':'
asbag57
(g78
g59
NtRp297
(dp298
g62
(dp299
sg71
g284
sg64
(lp300
g57
(g58
g59
NtRp301
(dp302
g62
(dp303
g70
I3
ssg71
g297
sg64
(lp304
S''
asbasbasbag57
(g73
g59
NtRp305
(dp306
g62
(dp307
sg71
g259
sg64
(lp308
g57
(g78
g59
NtRp309
(dp310
g62
(dp311
g82
g83
ssg71
g305
sg64
(lp312
S'expires'
p313
asbag57
(g78
g59
NtRp314
(dp315
g62
(dp316
g89
g90
ssg71
g305
sg64
(lp317
S':'
asbag57
(g78
g59
NtRp318
(dp319
g62
(dp320
sg71
g305
sg64
(lp321
g57
(g58
g59
NtRp322
(dp323
g62
(dp324
g70
I3
ssg71
g318
sg64
(lp325
S''
asbasbasbag57
(g73
g59
NtRp326
(dp327
g62
(dp328
sg71
g259
sg64
(lp329
g57
(g78
g59
NtRp330
(dp331
g62
(dp332
g82
g83
ssg71
g326
sg64
(lp333
S'httponly'
p334
asbag57
(g78
g59
NtRp335
(dp336
g62
(dp337
g89
g90
ssg71
g326
sg64
(lp338
S':'
asbag57
(g78
g59
NtRp339
(dp340
g62
(dp341
sg71
g326
sg64
(lp342
g57
(g58
g59
NtRp343
(dp344
g62
(dp345
g70
I3
ssg71
g339
sg64
(lp346
S''
asbasbasbag57
(g73
g59
NtRp347
(dp348
g62
(dp349
sg71
g259
sg64
(lp350
g57
(g78
g59
NtRp351
(dp352
g62
(dp353
g82
g83
ssg71
g347
sg64
(lp354
S'max-age'
p355
asbag57
(g78
g59
NtRp356
(dp357
g62
(dp358
g89
g90
ssg71
g347
sg64
(lp359
S':'
asbag57
(g78
g59
NtRp360
(dp361
g62
(dp362
sg71
g347
sg64
(lp363
g57
(g58
g59
NtRp364
(dp365
g62
(dp366
g70
I3
ssg71
g360
sg64
(lp367
S''
asbasbasbag57
(g73
g59
NtRp368
(dp369
g62
(dp370
sg71
g259
sg64
(lp371
g57
(g78
g59
NtRp372
(dp373
g62
(dp374
g82
g83
ssg71
g368
sg64
(lp375
S'path'
p376
asbag57
(g78
g59
NtRp377
(dp378
g62
(dp379
g89
g90
ssg71
g368
sg64
(lp380
S':'
asbag57
(g78
g59
NtRp381
(dp382
g62
(dp383
sg71
g368
sg64
(lp384
g57
(g58
g59
NtRp385
(dp386
g62
(dp387
g70
I3
ssg71
g381
sg64
(lp388
S''
asbasbasbag57
(g73
g59
NtRp389
(dp390
g62
(dp391
sg71
g259
sg64
(lp392
g57
(g78
g59
NtRp393
(dp394
g62
(dp395
g82
g83
ssg71
g389
sg64
(lp396
S'secure'
p397
asbag57
(g78
g59
NtRp398
(dp399
g62
(dp400
g89
g90
ssg71
g389
sg64
(lp401
S':'
asbag57
(g78
g59
NtRp402
(dp403
g62
(dp404
sg71
g389
sg64
(lp405
g57
(g58
g59
NtRp406
(dp407
g62
(dp408
g70
I3
ssg71
g402
sg64
(lp409
S''
asbasbasbag57
(g73
g59
NtRp410
(dp411
g62
(dp412
sg71
g259
sg64
(lp413
g57
(g78
g59
NtRp414
(dp415
g62
(dp416
g82
g83
ssg71
g410
sg64
(lp417
S'version'
p418
asbag57
(g78
g59
NtRp419
(dp420
g62
(dp421
g89
g90
ssg71
g410
sg64
(lp422
S':'
asbag57
(g78
g59
NtRp423
(dp424
g62
(dp425
sg71
g410
sg64
(lp426
g57
(g58
g59
NtRp427
(dp428
g62
(dp429
g70
I3
ssg71
g423
sg64
(lp430
S''
asbasbasbasbasbasbasbag57
(g73
g59
NtRp431
(dp432
g62
(dp433
sg71
g234
sg64
(lp434
g57
(g78
g59
NtRp435
(dp436
g62
(dp437
g82
g83
ssg71
g431
sg64
(lp438
S'session_id_init'
p439
asbag57
(g78
g59
NtRp440
(dp441
g62
(dp442
g89
g90
ssg71
g431
sg64
(lp443
S':'
asbag57
(g78
g59
NtRp444
(dp445
g62
(dp446
sg71
g431
sg64
(lp447
g57
(g58
g59
NtRp448
(dp449
g62
(dp450
g70
I4
ssg71
g444
sg64
(lp451
g57
(g66
g59
NtRp452
(dp453
g62
(dp454
g70
I3
ssg71
Nsg64
(lp455
g57
(g73
g59
NtRp456
(dp457
g62
(dp458
sg71
g452
sg64
(lp459
g57
(g78
g59
NtRp460
(dp461
g62
(dp462
g82
g83
ssg71
g456
sg64
(lp463
g271
asbag57
(g78
g59
NtRp464
(dp465
g62
(dp466
g89
g90
ssg71
g456
sg64
(lp467
S':'
asbag57
(g78
g59
NtRp468
(dp469
g62
(dp470
sg71
g456
sg64
(lp471
g57
(g58
g59
NtRp472
(dp473
g62
(dp474
g70
I3
ssg71
g468
sg64
(lp475
S''
asbasbasbag57
(g73
g59
NtRp476
(dp477
g62
(dp478
sg71
g452
sg64
(lp479
g57
(g78
g59
NtRp480
(dp481
g62
(dp482
g82
g83
ssg71
g476
sg64
(lp483
g292
asbag57
(g78
g59
NtRp484
(dp485
g62
(dp486
g89
g90
ssg71
g476
sg64
(lp487
S':'
asbag57
(g78
g59
NtRp488
(dp489
g62
(dp490
sg71
g476
sg64
(lp491
g57
(g58
g59
NtRp492
(dp493
g62
(dp494
g70
I3
ssg71
g488
sg64
(lp495
S''
asbasbasbag57
(g73
g59
NtRp496
(dp497
g62
(dp498
sg71
g452
sg64
(lp499
g57
(g78
g59
NtRp500
(dp501
g62
(dp502
g82
g83
ssg71
g496
sg64
(lp503
g313
asbag57
(g78
g59
NtRp504
(dp505
g62
(dp506
g89
g90
ssg71
g496
sg64
(lp507
S':'
asbag57
(g78
g59
NtRp508
(dp509
g62
(dp510
sg71
g496
sg64
(lp511
g57
(g58
g59
NtRp512
(dp513
g62
(dp514
g70
I3
ssg71
g508
sg64
(lp515
S''
asbasbasbag57
(g73
g59
NtRp516
(dp517
g62
(dp518
sg71
g452
sg64
(lp519
g57
(g78
g59
NtRp520
(dp521
g62
(dp522
g82
g83
ssg71
g516
sg64
(lp523
g334
asbag57
(g78
g59
NtRp524
(dp525
g62
(dp526
g89
g90
ssg71
g516
sg64
(lp527
S':'
asbag57
(g78
g59
NtRp528
(dp529
g62
(dp530
sg71
g516
sg64
(lp531
g57
(g58
g59
NtRp532
(dp533
g62
(dp534
g70
I3
ssg71
g528
sg64
(lp535
S''
asbasbasbag57
(g73
g59
NtRp536
(dp537
g62
(dp538
sg71
g452
sg64
(lp539
g57
(g78
g59
NtRp540
(dp541
g62
(dp542
g82
g83
ssg71
g536
sg64
(lp543
g355
asbag57
(g78
g59
NtRp544
(dp545
g62
(dp546
g89
g90
ssg71
g536
sg64
(lp547
S':'
asbag57
(g78
g59
NtRp548
(dp549
g62
(dp550
sg71
g536
sg64
(lp551
g57
(g58
g59
NtRp552
(dp553
g62
(dp554
g70
I3
ssg71
g548
sg64
(lp555
S''
asbasbasbag57
(g73
g59
NtRp556
(dp557
g62
(dp558
sg71
g452
sg64
(lp559
g57
(g78
g59
NtRp560
(dp561
g62
(dp562
g82
g83
ssg71
g556
sg64
(lp563
g376
asbag57
(g78
g59
NtRp564
(dp565
g62
(dp566
g89
g90
ssg71
g556
sg64
(lp567
S':'
asbag57
(g78
g59
NtRp568
(dp569
g62
(dp570
sg71
g556
sg64
(lp571
g57
(g58
g59
NtRp572
(dp573
g62
(dp574
g70
I3
ssg71
g568
sg64
(lp575
S''
asbasbasbag57
(g73
g59
NtRp576
(dp577
g62
(dp578
sg71
g452
sg64
(lp579
g57
(g78
g59
NtRp580
(dp581
g62
(dp582
g82
g83
ssg71
g576
sg64
(lp583
g397
asbag57
(g78
g59
NtRp584
(dp585
g62
(dp586
g89
g90
ssg71
g576
sg64
(lp587
S':'
asbag57
(g78
g59
NtRp588
(dp589
g62
(dp590
sg71
g576
sg64
(lp591
g57
(g58
g59
NtRp592
(dp593
g62
(dp594
g70
I3
ssg71
g588
sg64
(lp595
S''
asbasbasbag57
(g73
g59
NtRp596
(dp597
g62
(dp598
sg71
g452
sg64
(lp599
g57
(g78
g59
NtRp600
(dp601
g62
(dp602
g82
g83
ssg71
g596
sg64
(lp603
g418
asbag57
(g78
g59
NtRp604
(dp605
g62
(dp606
g89
g90
ssg71
g596
sg64
(lp607
S':'
asbag57
(g78
g59
NtRp608
(dp609
g62
(dp610
sg71
g596
sg64
(lp611
g57
(g58
g59
NtRp612
(dp613
g62
(dp614
g70
I3
ssg71
g608
sg64
(lp615
S''
asbasbasbasbasbasbasbag57
(g73
g59
NtRp616
(dp617
g62
(dp618
sg71
g234
sg64
(lp619
g57
(g78
g59
NtRp620
(dp621
g62
(dp622
g82
g83
ssg71
g616
sg64
(lp623
S'session_id_newztrader'
p624
asbag57
(g78
g59
NtRp625
(dp626
g62
(dp627
g89
g90
ssg71
g616
sg64
(lp628
S':'
asbag57
(g78
g59
NtRp629
(dp630
g62
(dp631
sg71
g616
sg64
(lp632
g57
(g58
g59
NtRp633
(dp634
g62
(dp635
g70
I4
ssg71
g629
sg64
(lp636
g57
(g66
g59
NtRp637
(dp638
g62
(dp639
g70
I3
ssg71
Nsg64
(lp640
g57
(g73
g59
NtRp641
(dp642
g62
(dp643
sg71
g637
sg64
(lp644
g57
(g78
g59
NtRp645
(dp646
g62
(dp647
g82
g83
ssg71
g641
sg64
(lp648
g271
asbag57
(g78
g59
NtRp649
(dp650
g62
(dp651
g89
g90
ssg71
g641
sg64
(lp652
S':'
asbag57
(g78
g59
NtRp653
(dp654
g62
(dp655
sg71
g641
sg64
(lp656
g57
(g58
g59
NtRp657
(dp658
g62
(dp659
g70
I3
ssg71
g653
sg64
(lp660
S''
asbasbasbag57
(g73
g59
NtRp661
(dp662
g62
(dp663
sg71
g637
sg64
(lp664
g57
(g78
g59
NtRp665
(dp666
g62
(dp667
g82
g83
ssg71
g661
sg64
(lp668
g292
asbag57
(g78
g59
NtRp669
(dp670
g62
(dp671
g89
g90
ssg71
g661
sg64
(lp672
S':'
asbag57
(g78
g59
NtRp673
(dp674
g62
(dp675
sg71
g661
sg64
(lp676
g57
(g58
g59
NtRp677
(dp678
g62
(dp679
g70
I3
ssg71
g673
sg64
(lp680
S''
asbasbasbag57
(g73
g59
NtRp681
(dp682
g62
(dp683
sg71
g637
sg64
(lp684
g57
(g78
g59
NtRp685
(dp686
g62
(dp687
g82
g83
ssg71
g681
sg64
(lp688
g313
asbag57
(g78
g59
NtRp689
(dp690
g62
(dp691
g89
g90
ssg71
g681
sg64
(lp692
S':'
asbag57
(g78
g59
NtRp693
(dp694
g62
(dp695
sg71
g681
sg64
(lp696
g57
(g58
g59
NtRp697
(dp698
g62
(dp699
g70
I3
ssg71
g693
sg64
(lp700
S''
asbasbasbag57
(g73
g59
NtRp701
(dp702
g62
(dp703
sg71
g637
sg64
(lp704
g57
(g78
g59
NtRp705
(dp706
g62
(dp707
g82
g83
ssg71
g701
sg64
(lp708
g334
asbag57
(g78
g59
NtRp709
(dp710
g62
(dp711
g89
g90
ssg71
g701
sg64
(lp712
S':'
asbag57
(g78
g59
NtRp713
(dp714
g62
(dp715
sg71
g701
sg64
(lp716
g57
(g58
g59
NtRp717
(dp718
g62
(dp719
g70
I3
ssg71
g713
sg64
(lp720
S''
asbasbasbag57
(g73
g59
NtRp721
(dp722
g62
(dp723
sg71
g637
sg64
(lp724
g57
(g78
g59
NtRp725
(dp726
g62
(dp727
g82
g83
ssg71
g721
sg64
(lp728
g355
asbag57
(g78
g59
NtRp729
(dp730
g62
(dp731
g89
g90
ssg71
g721
sg64
(lp732
S':'
asbag57
(g78
g59
NtRp733
(dp734
g62
(dp735
sg71
g721
sg64
(lp736
g57
(g58
g59
NtRp737
(dp738
g62
(dp739
g70
I3
ssg71
g733
sg64
(lp740
S''
asbasbasbag57
(g73
g59
NtRp741
(dp742
g62
(dp743
sg71
g637
sg64
(lp744
g57
(g78
g59
NtRp745
(dp746
g62
(dp747
g82
g83
ssg71
g741
sg64
(lp748
g376
asbag57
(g78
g59
NtRp749
(dp750
g62
(dp751
g89
g90
ssg71
g741
sg64
(lp752
S':'
asbag57
(g78
g59
NtRp753
(dp754
g62
(dp755
sg71
g741
sg64
(lp756
g57
(g58
g59
NtRp757
(dp758
g62
(dp759
g70
I3
ssg71
g753
sg64
(lp760
S''
asbasbasbag57
(g73
g59
NtRp761
(dp762
g62
(dp763
sg71
g637
sg64
(lp764
g57
(g78
g59
NtRp765
(dp766
g62
(dp767
g82
g83
ssg71
g761
sg64
(lp768
g397
asbag57
(g78
g59
NtRp769
(dp770
g62
(dp771
g89
g90
ssg71
g761
sg64
(lp772
S':'
asbag57
(g78
g59
NtRp773
(dp774
g62
(dp775
sg71
g761
sg64
(lp776
g57
(g58
g59
NtRp777
(dp778
g62
(dp779
g70
I3
ssg71
g773
sg64
(lp780
S''
asbasbasbag57
(g73
g59
NtRp781
(dp782
g62
(dp783
sg71
g637
sg64
(lp784
g57
(g78
g59
NtRp785
(dp786
g62
(dp787
g82
g83
ssg71
g781
sg64
(lp788
g418
asbag57
(g78
g59
NtRp789
(dp790
g62
(dp791
g89
g90
ssg71
g781
sg64
(lp792
S':'
asbag57
(g78
g59
NtRp793
(dp794
g62
(dp795
sg71
g781
sg64
(lp796
g57
(g58
g59
NtRp797
(dp798
g62
(dp799
g70
I3
ssg71
g793
sg64
(lp800
S''
asbasbasbasbasbasbasbasbasbasbasbag57
(g73
g59
NtRp801
(dp802
g62
(dp803
sg71
g67
sg64
(lp804
g57
(g78
g59
NtRp805
(dp806
g62
(dp807
g82
g83
ssg71
g801
sg64
(lp808
S'env'
p809
asbag57
(g78
g59
NtRp810
(dp811
g62
(dp812
g89
g90
ssg71
g801
sg64
(lp813
S':'
asbag57
(g78
g59
NtRp814
(dp815
g62
(dp816
sg71
g801
sg64
(lp817
g57
(g58
g59
NtRp818
(dp819
g62
(dp820
g70
I5
ssg71
g814
sg64
(lp821
g57
(g66
g59
NtRp822
(dp823
g62
(dp824
g70
I4
ssg71
Nsg64
(lp825
g57
(g73
g59
NtRp826
(dp827
g62
(dp828
sg71
g822
sg64
(lp829
g57
(g78
g59
NtRp830
(dp831
g62
(dp832
g82
g83
ssg71
g826
sg64
(lp833
S'app_folders'
p834
asbag57
(g78
g59
NtRp835
(dp836
g62
(dp837
g89
g90
ssg71
g826
sg64
(lp838
S':'
asbag57
(g78
g59
NtRp839
(dp840
g62
(dp841
sg71
g826
sg64
(lp842
g57
(g58
g59
NtRp843
(dp844
g62
(dp845
g70
I4
ssg71
g839
sg64
(lp846
S"set(['/home/lyonwj/webapps/web2py/web2py/applications/admin/', '/home/lyonwj/webapps/web2py/web2py/applications/NewzTrader/', '/home/lyonwj/webapps/web2py/web2py/applications/init/', '/home/lyonwj/webapps/web2py/web2py/applications/examples/'])"
p847
asbasbasbag57
(g73
g59
NtRp848
(dp849
g62
(dp850
sg71
g822
sg64
(lp851
g57
(g78
g59
NtRp852
(dp853
g62
(dp854
g82
g83
ssg71
g848
sg64
(lp855
S'applications_parent'
p856
asbag57
(g78
g59
NtRp857
(dp858
g62
(dp859
g89
g90
ssg71
g848
sg64
(lp860
S':'
asbag57
(g78
g59
NtRp861
(dp862
g62
(dp863
sg71
g848
sg64
(lp864
g57
(g58
g59
NtRp865
(dp866
g62
(dp867
g70
I4
ssg71
g861
sg64
(lp868
S'/home/lyonwj/webapps/web2py/web2py'
p869
asbasbasbag57
(g73
g59
NtRp870
(dp871
g62
(dp872
sg71
g822
sg64
(lp873
g57
(g78
g59
NtRp874
(dp875
g62
(dp876
g82
g83
ssg71
g870
sg64
(lp877
S'db_sessions'
p878
asbag57
(g78
g59
NtRp879
(dp880
g62
(dp881
g89
g90
ssg71
g870
sg64
(lp882
S':'
asbag57
(g78
g59
NtRp883
(dp884
g62
(dp885
sg71
g870
sg64
(lp886
g57
(g58
g59
NtRp887
(dp888
g62
(dp889
g70
I4
ssg71
g883
sg64
(lp890
S'set([])'
p891
asbasbasbag57
(g73
g59
NtRp892
(dp893
g62
(dp894
sg71
g822
sg64
(lp895
g57
(g78
g59
NtRp896
(dp897
g62
(dp898
g82
g83
ssg71
g892
sg64
(lp899
S'debugging'
p900
asbag57
(g78
g59
NtRp901
(dp902
g62
(dp903
g89
g90
ssg71
g892
sg64
(lp904
S':'
asbag57
(g78
g59
NtRp905
(dp906
g62
(dp907
sg71
g892
sg64
(lp908
g57
(g58
g59
NtRp909
(dp910
g62
(dp911
g70
I4
ssg71
g905
sg64
(lp912
g100
asbasbasbag57
(g73
g59
NtRp913
(dp914
g62
(dp915
sg71
g822
sg64
(lp916
g57
(g78
g59
NtRp917
(dp918
g62
(dp919
g82
g83
ssg71
g913
sg64
(lp920
S'document_root'
p921
asbag57
(g78
g59
NtRp922
(dp923
g62
(dp924
g89
g90
ssg71
g913
sg64
(lp925
S':'
asbag57
(g78
g59
NtRp926
(dp927
g62
(dp928
sg71
g913
sg64
(lp929
g57
(g58
g59
NtRp930
(dp931
g62
(dp932
g70
I4
ssg71
g926
sg64
(lp933
S'/home/lyonwj/webapps/web2py/htdocs'
p934
asbasbasbag57
(g73
g59
NtRp935
(dp936
g62
(dp937
sg71
g822
sg64
(lp938
g57
(g78
g59
NtRp939
(dp940
g62
(dp941
g82
g83
ssg71
g935
sg64
(lp942
S'gateway_interface'
p943
asbag57
(g78
g59
NtRp944
(dp945
g62
(dp946
g89
g90
ssg71
g935
sg64
(lp947
S':'
asbag57
(g78
g59
NtRp948
(dp949
g62
(dp950
sg71
g935
sg64
(lp951
g57
(g58
g59
NtRp952
(dp953
g62
(dp954
g70
I4
ssg71
g948
sg64
(lp955
S'CGI/1.1'
p956
asbasbasbag57
(g73
g59
NtRp957
(dp958
g62
(dp959
sg71
g822
sg64
(lp960
g57
(g78
g59
NtRp961
(dp962
g62
(dp963
g82
g83
ssg71
g957
sg64
(lp964
S'gluon_parent'
p965
asbag57
(g78
g59
NtRp966
(dp967
g62
(dp968
g89
g90
ssg71
g957
sg64
(lp969
S':'
asbag57
(g78
g59
NtRp970
(dp971
g62
(dp972
sg71
g957
sg64
(lp973
g57
(g58
g59
NtRp974
(dp975
g62
(dp976
g70
I4
ssg71
g970
sg64
(lp977
g869
asbasbasbag57
(g73
g59
NtRp978
(dp979
g62
(dp980
sg71
g822
sg64
(lp981
g57
(g78
g59
NtRp982
(dp983
g62
(dp984
g82
g83
ssg71
g978
sg64
(lp985
S'http_accept'
p986
asbag57
(g78
g59
NtRp987
(dp988
g62
(dp989
g89
g90
ssg71
g978
sg64
(lp990
S':'
asbag57
(g78
g59
NtRp991
(dp992
g62
(dp993
sg71
g978
sg64
(lp994
g57
(g58
g59
NtRp995
(dp996
g62
(dp997
g70
I4
ssg71
g991
sg64
(lp998
S'text/html,application/xhtml+xml,application/xml;q=0.9,*/*;q=0.8'
p999
asbasbasbag57
(g73
g59
NtRp1000
(dp1001
g62
(dp1002
sg71
g822
sg64
(lp1003
g57
(g78
g59
NtRp1004
(dp1005
g62
(dp1006
g82
g83
ssg71
g1000
sg64
(lp1007
S'http_accept_charset'
p1008
asbag57
(g78
g59
NtRp1009
(dp1010
g62
(dp1011
g89
g90
ssg71
g1000
sg64
(lp1012
S':'
asbag57
(g78
g59
NtRp1013
(dp1014
g62
(dp1015
sg71
g1000
sg64
(lp1016
g57
(g58
g59
NtRp1017
(dp1018
g62
(dp1019
g70
I4
ssg71
g1013
sg64
(lp1020
S'ISO-8859-1,utf-8;q=0.7,*;q=0.3'
p1021
asbasbasbag57
(g73
g59
NtRp1022
(dp1023
g62
(dp1024
sg71
g822
sg64
(lp1025
g57
(g78
g59
NtRp1026
(dp1027
g62
(dp1028
g82
g83
ssg71
g1022
sg64
(lp1029
S'http_accept_encoding'
p1030
asbag57
(g78
g59
NtRp1031
(dp1032
g62
(dp1033
g89
g90
ssg71
g1022
sg64
(lp1034
S':'
asbag57
(g78
g59
NtRp1035
(dp1036
g62
(dp1037
sg71
g1022
sg64
(lp1038
g57
(g58
g59
NtRp1039
(dp1040
g62
(dp1041
g70
I4
ssg71
g1035
sg64
(lp1042
S'gzip,deflate,sdch'
p1043
asbasbasbag57
(g73
g59
NtRp1044
(dp1045
g62
(dp1046
sg71
g822
sg64
(lp1047
g57
(g78
g59
NtRp1048
(dp1049
g62
(dp1050
g82
g83
ssg71
g1044
sg64
(lp1051
S'http_accept_language'
p1052
asbag57
(g78
g59
NtRp1053
(dp1054
g62
(dp1055
g89
g90
ssg71
g1044
sg64
(lp1056
S':'
asbag57
(g78
g59
NtRp1057
(dp1058
g62
(dp1059
sg71
g1044
sg64
(lp1060
g57
(g58
g59
NtRp1061
(dp1062
g62
(dp1063
g70
I4
ssg71
g1057
sg64
(lp1064
S'en-US,en;q=0.8'
p1065
asbasbasbag57
(g73
g59
NtRp1066
(dp1067
g62
(dp1068
sg71
g822
sg64
(lp1069
g57
(g78
g59
NtRp1070
(dp1071
g62
(dp1072
g82
g83
ssg71
g1066
sg64
(lp1073
S'http_cache_control'
p1074
asbag57
(g78
g59
NtRp1075
(dp1076
g62
(dp1077
g89
g90
ssg71
g1066
sg64
(lp1078
S':'
asbag57
(g78
g59
NtRp1079
(dp1080
g62
(dp1081
sg71
g1066
sg64
(lp1082
g57
(g58
g59
NtRp1083
(dp1084
g62
(dp1085
g70
I4
ssg71
g1079
sg64
(lp1086
S'max-age=0'
p1087
asbasbasbag57
(g73
g59
NtRp1088
(dp1089
g62
(dp1090
sg71
g822
sg64
(lp1091
g57
(g78
g59
NtRp1092
(dp1093
g62
(dp1094
g82
g83
ssg71
g1088
sg64
(lp1095
S'http_connection'
p1096
asbag57
(g78
g59
NtRp1097
(dp1098
g62
(dp1099
g89
g90
ssg71
g1088
sg64
(lp1100
S':'
asbag57
(g78
g59
NtRp1101
(dp1102
g62
(dp1103
sg71
g1088
sg64
(lp1104
g57
(g58
g59
NtRp1105
(dp1106
g62
(dp1107
g70
I4
ssg71
g1101
sg64
(lp1108
S'close'
p1109
asbasbasbag57
(g73
g59
NtRp1110
(dp1111
g62
(dp1112
sg71
g822
sg64
(lp1113
g57
(g78
g59
NtRp1114
(dp1115
g62
(dp1116
g82
g83
ssg71
g1110
sg64
(lp1117
S'http_cookie'
p1118
asbag57
(g78
g59
NtRp1119
(dp1120
g62
(dp1121
g89
g90
ssg71
g1110
sg64
(lp1122
S':'
asbag57
(g78
g59
NtRp1123
(dp1124
g62
(dp1125
sg71
g1110
sg64
(lp1126
g57
(g58
g59
NtRp1127
(dp1128
g62
(dp1129
g70
I4
ssg71
g1123
sg64
(lp1130
S'session_id_init=184.166.72.218-7282a69a-9d94-4109-960c-e4cb8e4e116b; session_id_newztrader=150.131.118.156-b3c924a2-4514-44dd-83e7-d6a94defa956; session_id_admin=150.131.118.156-9f4b28d6-5932-45d0-8c84-145047f85b81'
p1131
asbasbasbag57
(g73
g59
NtRp1132
(dp1133
g62
(dp1134
sg71
g822
sg64
(lp1135
g57
(g78
g59
NtRp1136
(dp1137
g62
(dp1138
g82
g83
ssg71
g1132
sg64
(lp1139
S'http_forwarded_request_uri'
p1140
asbag57
(g78
g59
NtRp1141
(dp1142
g62
(dp1143
g89
g90
ssg71
g1132
sg64
(lp1144
S':'
asbag57
(g78
g59
NtRp1145
(dp1146
g62
(dp1147
sg71
g1132
sg64
(lp1148
g57
(g58
g59
NtRp1149
(dp1150
g62
(dp1151
g70
I4
ssg71
g1145
sg64
(lp1152
S'/NewzTrader'
p1153
asbasbasbag57
(g73
g59
NtRp1154
(dp1155
g62
(dp1156
sg71
g822
sg64
(lp1157
g57
(g78
g59
NtRp1158
(dp1159
g62
(dp1160
g82
g83
ssg71
g1154
sg64
(lp1161
S'http_host'
p1162
asbag57
(g78
g59
NtRp1163
(dp1164
g62
(dp1165
g89
g90
ssg71
g1154
sg64
(lp1166
S':'
asbag57
(g78
g59
NtRp1167
(dp1168
g62
(dp1169
sg71
g1154
sg64
(lp1170
g57
(g58
g59
NtRp1171
(dp1172
g62
(dp1173
g70
I4
ssg71
g1167
sg64
(lp1174
S'williamlyon.org'
p1175
asbasbasbag57
(g73
g59
NtRp1176
(dp1177
g62
(dp1178
sg71
g822
sg64
(lp1179
g57
(g78
g59
NtRp1180
(dp1181
g62
(dp1182
g82
g83
ssg71
g1176
sg64
(lp1183
S'http_http_x_forwarded_proto'
p1184
asbag57
(g78
g59
NtRp1185
(dp1186
g62
(dp1187
g89
g90
ssg71
g1176
sg64
(lp1188
S':'
asbag57
(g78
g59
NtRp1189
(dp1190
g62
(dp1191
sg71
g1176
sg64
(lp1192
g57
(g58
g59
NtRp1193
(dp1194
g62
(dp1195
g70
I4
ssg71
g1189
sg64
(lp1196
S'https'
p1197
asbasbasbag57
(g73
g59
NtRp1198
(dp1199
g62
(dp1200
sg71
g822
sg64
(lp1201
g57
(g78
g59
NtRp1202
(dp1203
g62
(dp1204
g82
g83
ssg71
g1198
sg64
(lp1205
S'http_https'
p1206
asbag57
(g78
g59
NtRp1207
(dp1208
g62
(dp1209
g89
g90
ssg71
g1198
sg64
(lp1210
S':'
asbag57
(g78
g59
NtRp1211
(dp1212
g62
(dp1213
sg71
g1198
sg64
(lp1214
g57
(g58
g59
NtRp1215
(dp1216
g62
(dp1217
g70
I4
ssg71
g1211
sg64
(lp1218
S'on'
p1219
asbasbasbag57
(g73
g59
NtRp1220
(dp1221
g62
(dp1222
sg71
g822
sg64
(lp1223
g57
(g78
g59
NtRp1224
(dp1225
g62
(dp1226
g82
g83
ssg71
g1220
sg64
(lp1227
S'http_user_agent'
p1228
asbag57
(g78
g59
NtRp1229
(dp1230
g62
(dp1231
g89
g90
ssg71
g1220
sg64
(lp1232
S':'
asbag57
(g78
g59
NtRp1233
(dp1234
g62
(dp1235
sg71
g1220
sg64
(lp1236
g57
(g58
g59
NtRp1237
(dp1238
g62
(dp1239
g70
I4
ssg71
g1233
sg64
(lp1240
S'Mozilla/5.0 (Macintosh; Intel Mac OS X 10_8_2) AppleWebKit/537.4 (KHTML, like Gecko) Chrome/22.0.1229.94 Safari/537.4'
p1241
asbasbasbag57
(g73
g59
NtRp1242
(dp1243
g62
(dp1244
sg71
g822
sg64
(lp1245
g57
(g78
g59
NtRp1246
(dp1247
g62
(dp1248
g82
g83
ssg71
g1242
sg64
(lp1249
S'http_x_forwarded_for'
p1250
asbag57
(g78
g59
NtRp1251
(dp1252
g62
(dp1253
g89
g90
ssg71
g1242
sg64
(lp1254
S':'
asbag57
(g78
g59
NtRp1255
(dp1256
g62
(dp1257
sg71
g1242
sg64
(lp1258
g57
(g58
g59
NtRp1259
(dp1260
g62
(dp1261
g70
I4
ssg71
g1255
sg64
(lp1262
g190
asbasbasbag57
(g73
g59
NtRp1263
(dp1264
g62
(dp1265
sg71
g822
sg64
(lp1266
g57
(g78
g59
NtRp1267
(dp1268
g62
(dp1269
g82
g83
ssg71
g1263
sg64
(lp1270
S'http_x_forwarded_host'
p1271
asbag57
(g78
g59
NtRp1272
(dp1273
g62
(dp1274
g89
g90
ssg71
g1263
sg64
(lp1275
S':'
asbag57
(g78
g59
NtRp1276
(dp1277
g62
(dp1278
sg71
g1263
sg64
(lp1279
g57
(g58
g59
NtRp1280
(dp1281
g62
(dp1282
g70
I4
ssg71
g1276
sg64
(lp1283
S'williamlyon.org'
p1284
asbasbasbag57
(g73
g59
NtRp1285
(dp1286
g62
(dp1287
sg71
g822
sg64
(lp1288
g57
(g78
g59
NtRp1289
(dp1290
g62
(dp1291
g82
g83
ssg71
g1285
sg64
(lp1292
S'http_x_forwarded_proto'
p1293
asbag57
(g78
g59
NtRp1294
(dp1295
g62
(dp1296
g89
g90
ssg71
g1285
sg64
(lp1297
S':'
asbag57
(g78
g59
NtRp1298
(dp1299
g62
(dp1300
sg71
g1285
sg64
(lp1301
g57
(g58
g59
NtRp1302
(dp1303
g62
(dp1304
g70
I4
ssg71
g1298
sg64
(lp1305
S'https'
p1306
asbasbasbag57
(g73
g59
NtRp1307
(dp1308
g62
(dp1309
sg71
g822
sg64
(lp1310
g57
(g78
g59
NtRp1311
(dp1312
g62
(dp1313
g82
g83
ssg71
g1307
sg64
(lp1314
S'http_x_forwarded_server'
p1315
asbag57
(g78
g59
NtRp1316
(dp1317
g62
(dp1318
g89
g90
ssg71
g1307
sg64
(lp1319
S':'
asbag57
(g78
g59
NtRp1320
(dp1321
g62
(dp1322
sg71
g1307
sg64
(lp1323
g57
(g58
g59
NtRp1324
(dp1325
g62
(dp1326
g70
I4
ssg71
g1320
sg64
(lp1327
S'williamlyon.org'
p1328
asbasbasbag57
(g73
g59
NtRp1329
(dp1330
g62
(dp1331
sg71
g822
sg64
(lp1332
g57
(g78
g59
NtRp1333
(dp1334
g62
(dp1335
g82
g83
ssg71
g1329
sg64
(lp1336
S'http_x_forwarded_ssl'
p1337
asbag57
(g78
g59
NtRp1338
(dp1339
g62
(dp1340
g89
g90
ssg71
g1329
sg64
(lp1341
S':'
asbag57
(g78
g59
NtRp1342
(dp1343
g62
(dp1344
sg71
g1329
sg64
(lp1345
g57
(g58
g59
NtRp1346
(dp1347
g62
(dp1348
g70
I4
ssg71
g1342
sg64
(lp1349
S'on'
p1350
asbasbasbag57
(g73
g59
NtRp1351
(dp1352
g62
(dp1353
sg71
g822
sg64
(lp1354
g57
(g78
g59
NtRp1355
(dp1356
g62
(dp1357
g82
g83
ssg71
g1351
sg64
(lp1358
S'https'
p1359
asbag57
(g78
g59
NtRp1360
(dp1361
g62
(dp1362
g89
g90
ssg71
g1351
sg64
(lp1363
S':'
asbag57
(g78
g59
NtRp1364
(dp1365
g62
(dp1366
sg71
g1351
sg64
(lp1367
g57
(g58
g59
NtRp1368
(dp1369
g62
(dp1370
g70
I4
ssg71
g1364
sg64
(lp1371
S'1'
asbasbasbag57
(g73
g59
NtRp1372
(dp1373
g62
(dp1374
sg71
g822
sg64
(lp1375
g57
(g78
g59
NtRp1376
(dp1377
g62
(dp1378
g82
g83
ssg71
g1372
sg64
(lp1379
S'is_jython'
p1380
asbag57
(g78
g59
NtRp1381
(dp1382
g62
(dp1383
g89
g90
ssg71
g1372
sg64
(lp1384
S':'
asbag57
(g78
g59
NtRp1385
(dp1386
g62
(dp1387
sg71
g1372
sg64
(lp1388
g57
(g58
g59
NtRp1389
(dp1390
g62
(dp1391
g70
I4
ssg71
g1385
sg64
(lp1392
g100
asbasbasbag57
(g73
g59
NtRp1393
(dp1394
g62
(dp1395
sg71
g822
sg64
(lp1396
g57
(g78
g59
NtRp1397
(dp1398
g62
(dp1399
g82
g83
ssg71
g1393
sg64
(lp1400
S'is_pypy'
p1401
asbag57
(g78
g59
NtRp1402
(dp1403
g62
(dp1404
g89
g90
ssg71
g1393
sg64
(lp1405
S':'
asbag57
(g78
g59
NtRp1406
(dp1407
g62
(dp1408
sg71
g1393
sg64
(lp1409
g57
(g58
g59
NtRp1410
(dp1411
g62
(dp1412
g70
I4
ssg71
g1406
sg64
(lp1413
g100
asbasbasbag57
(g73
g59
NtRp1414
(dp1415
g62
(dp1416
sg71
g822
sg64
(lp1417
g57
(g78
g59
NtRp1418
(dp1419
g62
(dp1420
g82
g83
ssg71
g1414
sg64
(lp1421
S'mod_wsgi_application_group'
p1422
asbag57
(g78
g59
NtRp1423
(dp1424
g62
(dp1425
g89
g90
ssg71
g1414
sg64
(lp1426
S':'
asbag57
(g78
g59
NtRp1427
(dp1428
g62
(dp1429
sg71
g1414
sg64
(lp1430
g57
(g58
g59
NtRp1431
(dp1432
g62
(dp1433
g70
I4
ssg71
g1427
sg64
(lp1434
S'web341.webfaction.com|'
p1435
asbasbasbag57
(g73
g59
NtRp1436
(dp1437
g62
(dp1438
sg71
g822
sg64
(lp1439
g57
(g78
g59
NtRp1440
(dp1441
g62
(dp1442
g82
g83
ssg71
g1436
sg64
(lp1443
S'mod_wsgi_callable_object'
p1444
asbag57
(g78
g59
NtRp1445
(dp1446
g62
(dp1447
g89
g90
ssg71
g1436
sg64
(lp1448
S':'
asbag57
(g78
g59
NtRp1449
(dp1450
g62
(dp1451
sg71
g1436
sg64
(lp1452
g57
(g58
g59
NtRp1453
(dp1454
g62
(dp1455
g70
I4
ssg71
g1449
sg64
(lp1456
S'application'
p1457
asbasbasbag57
(g73
g59
NtRp1458
(dp1459
g62
(dp1460
sg71
g822
sg64
(lp1461
g57
(g78
g59
NtRp1462
(dp1463
g62
(dp1464
g82
g83
ssg71
g1458
sg64
(lp1465
S'mod_wsgi_handler_script'
p1466
asbag57
(g78
g59
NtRp1467
(dp1468
g62
(dp1469
g89
g90
ssg71
g1458
sg64
(lp1470
S':'
asbag57
(g78
g59
NtRp1471
(dp1472
g62
(dp1473
sg71
g1458
sg64
(lp1474
g57
(g58
g59
NtRp1475
(dp1476
g62
(dp1477
g70
I4
ssg71
g1471
sg64
(lp1478
S''
asbasbasbag57
(g73
g59
NtRp1479
(dp1480
g62
(dp1481
sg71
g822
sg64
(lp1482
g57
(g78
g59
NtRp1483
(dp1484
g62
(dp1485
g82
g83
ssg71
g1479
sg64
(lp1486
S'mod_wsgi_input_chunked'
p1487
asbag57
(g78
g59
NtRp1488
(dp1489
g62
(dp1490
g89
g90
ssg71
g1479
sg64
(lp1491
S':'
asbag57
(g78
g59
NtRp1492
(dp1493
g62
(dp1494
sg71
g1479
sg64
(lp1495
g57
(g58
g59
NtRp1496
(dp1497
g62
(dp1498
g70
I4
ssg71
g1492
sg64
(lp1499
S'0'
asbasbasbag57
(g73
g59
NtRp1500
(dp1501
g62
(dp1502
sg71
g822
sg64
(lp1503
g57
(g78
g59
NtRp1504
(dp1505
g62
(dp1506
g82
g83
ssg71
g1500
sg64
(lp1507
S'mod_wsgi_listener_host'
p1508
asbag57
(g78
g59
NtRp1509
(dp1510
g62
(dp1511
g89
g90
ssg71
g1500
sg64
(lp1512
S':'
asbag57
(g78
g59
NtRp1513
(dp1514
g62
(dp1515
sg71
g1500
sg64
(lp1516
g57
(g58
g59
NtRp1517
(dp1518
g62
(dp1519
g70
I4
ssg71
g1513
sg64
(lp1520
S''
asbasbasbag57
(g73
g59
NtRp1521
(dp1522
g62
(dp1523
sg71
g822
sg64
(lp1524
g57
(g78
g59
NtRp1525
(dp1526
g62
(dp1527
g82
g83
ssg71
g1521
sg64
(lp1528
S'mod_wsgi_listener_port'
p1529
asbag57
(g78
g59
NtRp1530
(dp1531
g62
(dp1532
g89
g90
ssg71
g1521
sg64
(lp1533
S':'
asbag57
(g78
g59
NtRp1534
(dp1535
g62
(dp1536
sg71
g1521
sg64
(lp1537
g57
(g58
g59
NtRp1538
(dp1539
g62
(dp1540
g70
I4
ssg71
g1534
sg64
(lp1541
S'49632'
p1542
asbasbasbag57
(g73
g59
NtRp1543
(dp1544
g62
(dp1545
sg71
g822
sg64
(lp1546
g57
(g78
g59
NtRp1547
(dp1548
g62
(dp1549
g82
g83
ssg71
g1543
sg64
(lp1550
S'mod_wsgi_process_group'
p1551
asbag57
(g78
g59
NtRp1552
(dp1553
g62
(dp1554
g89
g90
ssg71
g1543
sg64
(lp1555
S':'
asbag57
(g78
g59
NtRp1556
(dp1557
g62
(dp1558
sg71
g1543
sg64
(lp1559
g57
(g58
g59
NtRp1560
(dp1561
g62
(dp1562
g70
I4
ssg71
g1556
sg64
(lp1563
S'web2py'
p1564
asbasbasbag57
(g73
g59
NtRp1565
(dp1566
g62
(dp1567
sg71
g822
sg64
(lp1568
g57
(g78
g59
NtRp1569
(dp1570
g62
(dp1571
g82
g83
ssg71
g1565
sg64
(lp1572
S'mod_wsgi_request_handler'
p1573
asbag57
(g78
g59
NtRp1574
(dp1575
g62
(dp1576
g89
g90
ssg71
g1565
sg64
(lp1577
S':'
asbag57
(g78
g59
NtRp1578
(dp1579
g62
(dp1580
sg71
g1565
sg64
(lp1581
g57
(g58
g59
NtRp1582
(dp1583
g62
(dp1584
g70
I4
ssg71
g1578
sg64
(lp1585
S'wsgi-script'
p1586
asbasbasbag57
(g73
g59
NtRp1587
(dp1588
g62
(dp1589
sg71
g822
sg64
(lp1590
g57
(g78
g59
NtRp1591
(dp1592
g62
(dp1593
g82
g83
ssg71
g1587
sg64
(lp1594
S'mod_wsgi_script_reloading'
p1595
asbag57
(g78
g59
NtRp1596
(dp1597
g62
(dp1598
g89
g90
ssg71
g1587
sg64
(lp1599
S':'
asbag57
(g78
g59
NtRp1600
(dp1601
g62
(dp1602
sg71
g1587
sg64
(lp1603
g57
(g58
g59
NtRp1604
(dp1605
g62
(dp1606
g70
I4
ssg71
g1600
sg64
(lp1607
S'1'
asbasbasbag57
(g73
g59
NtRp1608
(dp1609
g62
(dp1610
sg71
g822
sg64
(lp1611
g57
(g78
g59
NtRp1612
(dp1613
g62
(dp1614
g82
g83
ssg71
g1608
sg64
(lp1615
S'mod_wsgi_version'
p1616
asbag57
(g78
g59
NtRp1617
(dp1618
g62
(dp1619
g89
g90
ssg71
g1608
sg64
(lp1620
S':'
asbag57
(g78
g59
NtRp1621
(dp1622
g62
(dp1623
sg71
g1608
sg64
(lp1624
g57
(g58
g59
NtRp1625
(dp1626
g62
(dp1627
g70
I4
ssg71
g1621
sg64
(lp1628
g57
(g66
g59
NtRp1629
(dp1630
g62
(dp1631
g70
I3
ssg71
Nsg64
(lp1632
g57
(g73
g59
NtRp1633
(dp1634
g62
(dp1635
sg71
g1629
sg64
(lp1636
g57
(g78
g59
NtRp1637
(dp1638
g62
(dp1639
sg71
g1633
sg64
(lp1640
g57
(g58
g59
NtRp1641
(dp1642
g62
(dp1643
g70
I3
ssg71
g1637
sg64
(lp1644
S'3'
asbasbasbag57
(g73
g59
NtRp1645
(dp1646
g62
(dp1647
sg71
g1629
sg64
(lp1648
g57
(g78
g59
NtRp1649
(dp1650
g62
(dp1651
sg71
g1645
sg64
(lp1652
g57
(g58
g59
NtRp1653
(dp1654
g62
(dp1655
g70
I3
ssg71
g1649
sg64
(lp1656
S'3'
asbasbasbasbasbasbasbag57
(g73
g59
NtRp1657
(dp1658
g62
(dp1659
sg71
g822
sg64
(lp1660
g57
(g78
g59
NtRp1661
(dp1662
g62
(dp1663
g82
g83
ssg71
g1657
sg64
(lp1664
S'path_info'
p1665
asbag57
(g78
g59
NtRp1666
(dp1667
g62
(dp1668
g89
g90
ssg71
g1657
sg64
(lp1669
S':'
asbag57
(g78
g59
NtRp1670
(dp1671
g62
(dp1672
sg71
g1657
sg64
(lp1673
g57
(g58
g59
NtRp1674
(dp1675
g62
(dp1676
g70
I4
ssg71
g1670
sg64
(lp1677
S'/NewzTrader'
p1678
asbasbasbag57
(g73
g59
NtRp1679
(dp1680
g62
(dp1681
sg71
g822
sg64
(lp1682
g57
(g78
g59
NtRp1683
(dp1684
g62
(dp1685
g82
g83
ssg71
g1679
sg64
(lp1686
S'path_translated'
p1687
asbag57
(g78
g59
NtRp1688
(dp1689
g62
(dp1690
g89
g90
ssg71
g1679
sg64
(lp1691
S':'
asbag57
(g78
g59
NtRp1692
(dp1693
g62
(dp1694
sg71
g1679
sg64
(lp1695
g57
(g58
g59
NtRp1696
(dp1697
g62
(dp1698
g70
I4
ssg71
g1692
sg64
(lp1699
S'/home/lyonwj/webapps/web2py/web2py/wsgihandler.py/NewzTrader'
p1700
asbasbasbag57
(g73
g59
NtRp1701
(dp1702
g62
(dp1703
sg71
g822
sg64
(lp1704
g57
(g78
g59
NtRp1705
(dp1706
g62
(dp1707
g82
g83
ssg71
g1701
sg64
(lp1708
S'query_string'
p1709
asbag57
(g78
g59
NtRp1710
(dp1711
g62
(dp1712
g89
g90
ssg71
g1701
sg64
(lp1713
S':'
asbag57
(g78
g59
NtRp1714
(dp1715
g62
(dp1716
sg71
g1701
sg64
(lp1717
g57
(g58
g59
NtRp1718
(dp1719
g62
(dp1720
g70
I4
ssg71
g1714
sg64
(lp1721
S''
asbasbasbag57
(g73
g59
NtRp1722
(dp1723
g62
(dp1724
sg71
g822
sg64
(lp1725
g57
(g78
g59
NtRp1726
(dp1727
g62
(dp1728
g82
g83
ssg71
g1722
sg64
(lp1729
S'remote_addr'
p1730
asbag57
(g78
g59
NtRp1731
(dp1732
g62
(dp1733
g89
g90
ssg71
g1722
sg64
(lp1734
S':'
asbag57
(g78
g59
NtRp1735
(dp1736
g62
(dp1737
sg71
g1722
sg64
(lp1738
g57
(g58
g59
NtRp1739
(dp1740
g62
(dp1741
g70
I4
ssg71
g1735
sg64
(lp1742
S'127.0.0.1'
p1743
asbasbasbag57
(g73
g59
NtRp1744
(dp1745
g62
(dp1746
sg71
g822
sg64
(lp1747
g57
(g78
g59
NtRp1748
(dp1749
g62
(dp1750
g82
g83
ssg71
g1744
sg64
(lp1751
S'remote_port'
p1752
asbag57
(g78
g59
NtRp1753
(dp1754
g62
(dp1755
g89
g90
ssg71
g1744
sg64
(lp1756
S':'
asbag57
(g78
g59
NtRp1757
(dp1758
g62
(dp1759
sg71
g1744
sg64
(lp1760
g57
(g58
g59
NtRp1761
(dp1762
g62
(dp1763
g70
I4
ssg71
g1757
sg64
(lp1764
S'50980'
p1765
asbasbasbag57
(g73
g59
NtRp1766
(dp1767
g62
(dp1768
sg71
g822
sg64
(lp1769
g57
(g78
g59
NtRp1770
(dp1771
g62
(dp1772
g82
g83
ssg71
g1766
sg64
(lp1773
S'request_method'
p1774
asbag57
(g78
g59
NtRp1775
(dp1776
g62
(dp1777
g89
g90
ssg71
g1766
sg64
(lp1778
S':'
asbag57
(g78
g59
NtRp1779
(dp1780
g62
(dp1781
sg71
g1766
sg64
(lp1782
g57
(g58
g59
NtRp1783
(dp1784
g62
(dp1785
g70
I4
ssg71
g1779
sg64
(lp1786
S'GET'
p1787
asbasbasbag57
(g73
g59
NtRp1788
(dp1789
g62
(dp1790
sg71
g822
sg64
(lp1791
g57
(g78
g59
NtRp1792
(dp1793
g62
(dp1794
g82
g83
ssg71
g1788
sg64
(lp1795
S'request_uri'
p1796
asbag57
(g78
g59
NtRp1797
(dp1798
g62
(dp1799
g89
g90
ssg71
g1788
sg64
(lp1800
S':'
asbag57
(g78
g59
NtRp1801
(dp1802
g62
(dp1803
sg71
g1788
sg64
(lp1804
g57
(g58
g59
NtRp1805
(dp1806
g62
(dp1807
g70
I4
ssg71
g1801
sg64
(lp1808
S'/NewzTrader'
p1809
asbasbasbag57
(g73
g59
NtRp1810
(dp1811
g62
(dp1812
sg71
g822
sg64
(lp1813
g57
(g78
g59
NtRp1814
(dp1815
g62
(dp1816
g82
g83
ssg71
g1810
sg64
(lp1817
S'script_filename'
p1818
asbag57
(g78
g59
NtRp1819
(dp1820
g62
(dp1821
g89
g90
ssg71
g1810
sg64
(lp1822
S':'
asbag57
(g78
g59
NtRp1823
(dp1824
g62
(dp1825
sg71
g1810
sg64
(lp1826
g57
(g58
g59
NtRp1827
(dp1828
g62
(dp1829
g70
I4
ssg71
g1823
sg64
(lp1830
S'/home/lyonwj/webapps/web2py/web2py/wsgihandler.py'
p1831
asbasbasbag57
(g73
g59
NtRp1832
(dp1833
g62
(dp1834
sg71
g822
sg64
(lp1835
g57
(g78
g59
NtRp1836
(dp1837
g62
(dp1838
g82
g83
ssg71
g1832
sg64
(lp1839
S'script_name'
p1840
asbag57
(g78
g59
NtRp1841
(dp1842
g62
(dp1843
g89
g90
ssg71
g1832
sg64
(lp1844
S':'
asbag57
(g78
g59
NtRp1845
(dp1846
g62
(dp1847
sg71
g1832
sg64
(lp1848
g57
(g58
g59
NtRp1849
(dp1850
g62
(dp1851
g70
I4
ssg71
g1845
sg64
(lp1852
S''
asbasbasbag57
(g73
g59
NtRp1853
(dp1854
g62
(dp1855
sg71
g822
sg64
(lp1856
g57
(g78
g59
NtRp1857
(dp1858
g62
(dp1859
g82
g83
ssg71
g1853
sg64
(lp1860
S'server_addr'
p1861
asbag57
(g78
g59
NtRp1862
(dp1863
g62
(dp1864
g89
g90
ssg71
g1853
sg64
(lp1865
S':'
asbag57
(g78
g59
NtRp1866
(dp1867
g62
(dp1868
sg71
g1853
sg64
(lp1869
g57
(g58
g59
NtRp1870
(dp1871
g62
(dp1872
g70
I4
ssg71
g1866
sg64
(lp1873
S'127.0.0.1'
p1874
asbasbasbag57
(g73
g59
NtRp1875
(dp1876
g62
(dp1877
sg71
g822
sg64
(lp1878
g57
(g78
g59
NtRp1879
(dp1880
g62
(dp1881
g82
g83
ssg71
g1875
sg64
(lp1882
S'server_admin'
p1883
asbag57
(g78
g59
NtRp1884
(dp1885
g62
(dp1886
g89
g90
ssg71
g1875
sg64
(lp1887
S':'
asbag57
(g78
g59
NtRp1888
(dp1889
g62
(dp1890
sg71
g1875
sg64
(lp1891
g57
(g58
g59
NtRp1892
(dp1893
g62
(dp1894
g70
I4
ssg71
g1888
sg64
(lp1895
S'[no address given]'
p1896
asbasbasbag57
(g73
g59
NtRp1897
(dp1898
g62
(dp1899
sg71
g822
sg64
(lp1900
g57
(g78
g59
NtRp1901
(dp1902
g62
(dp1903
g82
g83
ssg71
g1897
sg64
(lp1904
S'server_name'
p1905
asbag57
(g78
g59
NtRp1906
(dp1907
g62
(dp1908
g89
g90
ssg71
g1897
sg64
(lp1909
S':'
asbag57
(g78
g59
NtRp1910
(dp1911
g62
(dp1912
sg71
g1897
sg64
(lp1913
g57
(g58
g59
NtRp1914
(dp1915
g62
(dp1916
g70
I4
ssg71
g1910
sg64
(lp1917
S'williamlyon.org'
p1918
asbasbasbag57
(g73
g59
NtRp1919
(dp1920
g62
(dp1921
sg71
g822
sg64
(lp1922
g57
(g78
g59
NtRp1923
(dp1924
g62
(dp1925
g82
g83
ssg71
g1919
sg64
(lp1926
S'server_port'
p1927
asbag57
(g78
g59
NtRp1928
(dp1929
g62
(dp1930
g89
g90
ssg71
g1919
sg64
(lp1931
S':'
asbag57
(g78
g59
NtRp1932
(dp1933
g62
(dp1934
sg71
g1919
sg64
(lp1935
g57
(g58
g59
NtRp1936
(dp1937
g62
(dp1938
g70
I4
ssg71
g1932
sg64
(lp1939
S'80'
p1940
asbasbasbag57
(g73
g59
NtRp1941
(dp1942
g62
(dp1943
sg71
g822
sg64
(lp1944
g57
(g78
g59
NtRp1945
(dp1946
g62
(dp1947
g82
g83
ssg71
g1941
sg64
(lp1948
S'server_protocol'
p1949
asbag57
(g78
g59
NtRp1950
(dp1951
g62
(dp1952
g89
g90
ssg71
g1941
sg64
(lp1953
S':'
asbag57
(g78
g59
NtRp1954
(dp1955
g62
(dp1956
sg71
g1941
sg64
(lp1957
g57
(g58
g59
NtRp1958
(dp1959
g62
(dp1960
g70
I4
ssg71
g1954
sg64
(lp1961
S'HTTP/1.0'
p1962
asbasbasbag57
(g73
g59
NtRp1963
(dp1964
g62
(dp1965
sg71
g822
sg64
(lp1966
g57
(g78
g59
NtRp1967
(dp1968
g62
(dp1969
g82
g83
ssg71
g1963
sg64
(lp1970
S'server_signature'
p1971
asbag57
(g78
g59
NtRp1972
(dp1973
g62
(dp1974
g89
g90
ssg71
g1963
sg64
(lp1975
S':'
asbag57
(g78
g59
NtRp1976
(dp1977
g62
(dp1978
sg71
g1963
sg64
(lp1979
g57
(g58
g59
NtRp1980
(dp1981
g62
(dp1982
g70
I4
ssg71
g1976
sg64
(lp1983
S''
asbasbasbag57
(g73
g59
NtRp1984
(dp1985
g62
(dp1986
sg71
g822
sg64
(lp1987
g57
(g78
g59
NtRp1988
(dp1989
g62
(dp1990
g82
g83
ssg71
g1984
sg64
(lp1991
S'server_software'
p1992
asbag57
(g78
g59
NtRp1993
(dp1994
g62
(dp1995
g89
g90
ssg71
g1984
sg64
(lp1996
S':'
asbag57
(g78
g59
NtRp1997
(dp1998
g62
(dp1999
sg71
g1984
sg64
(lp2000
g57
(g58
g59
NtRp2001
(dp2002
g62
(dp2003
g70
I4
ssg71
g1997
sg64
(lp2004
S'Apache/2.2.17 (Unix) mod_wsgi/3.3 Python/2.7.3'
p2005
asbasbasbag57
(g73
g59
NtRp2006
(dp2007
g62
(dp2008
sg71
g822
sg64
(lp2009
g57
(g78
g59
NtRp2010
(dp2011
g62
(dp2012
g82
g83
ssg71
g2006
sg64
(lp2013
S'web2py_path'
p2014
asbag57
(g78
g59
NtRp2015
(dp2016
g62
(dp2017
g89
g90
ssg71
g2006
sg64
(lp2018
S':'
asbag57
(g78
g59
NtRp2019
(dp2020
g62
(dp2021
sg71
g2006
sg64
(lp2022
g57
(g58
g59
NtRp2023
(dp2024
g62
(dp2025
g70
I4
ssg71
g2019
sg64
(lp2026
g869
asbasbasbag57
(g73
g59
NtRp2027
(dp2028
g62
(dp2029
sg71
g822
sg64
(lp2030
g57
(g78
g59
NtRp2031
(dp2032
g62
(dp2033
g82
g83
ssg71
g2027
sg64
(lp2034
S'web2py_version'
p2035
asbag57
(g78
g59
NtRp2036
(dp2037
g62
(dp2038
g89
g90
ssg71
g2027
sg64
(lp2039
S':'
asbag57
(g78
g59
NtRp2040
(dp2041
g62
(dp2042
sg71
g2027
sg64
(lp2043
g57
(g58
g59
NtRp2044
(dp2045
g62
(dp2046
g70
I4
ssg71
g2040
sg64
(lp2047
g57
(g66
g59
NtRp2048
(dp2049
g62
(dp2050
g70
I3
ssg71
Nsg64
(lp2051
g57
(g73
g59
NtRp2052
(dp2053
g62
(dp2054
sg71
g2048
sg64
(lp2055
g57
(g78
g59
NtRp2056
(dp2057
g62
(dp2058
sg71
g2052
sg64
(lp2059
g57
(g58
g59
NtRp2060
(dp2061
g62
(dp2062
g70
I3
ssg71
g2056
sg64
(lp2063
S'1'
asbasbasbag57
(g73
g59
NtRp2064
(dp2065
g62
(dp2066
sg71
g2048
sg64
(lp2067
g57
(g78
g59
NtRp2068
(dp2069
g62
(dp2070
sg71
g2064
sg64
(lp2071
g57
(g58
g59
NtRp2072
(dp2073
g62
(dp2074
g70
I3
ssg71
g2068
sg64
(lp2075
S'99'
p2076
asbasbasbag57
(g73
g59
NtRp2077
(dp2078
g62
(dp2079
sg71
g2048
sg64
(lp2080
g57
(g78
g59
NtRp2081
(dp2082
g62
(dp2083
sg71
g2077
sg64
(lp2084
g57
(g58
g59
NtRp2085
(dp2086
g62
(dp2087
g70
I3
ssg71
g2081
sg64
(lp2088
S'7'
asbasbasbag57
(g73
g59
NtRp2089
(dp2090
g62
(dp2091
sg71
g2048
sg64
(lp2092
g57
(g78
g59
NtRp2093
(dp2094
g62
(dp2095
sg71
g2089
sg64
(lp2096
g57
(g58
g59
NtRp2097
(dp2098
g62
(dp2099
g70
I3
ssg71
g2093
sg64
(lp2100
S'datetime.datetime(2012, 3, 4, 22, 12, 8)'
p2101
asbasbasbag57
(g73
g59
NtRp2102
(dp2103
g62
(dp2104
sg71
g2048
sg64
(lp2105
g57
(g78
g59
NtRp2106
(dp2107
g62
(dp2108
sg71
g2102
sg64
(lp2109
g57
(g58
g59
NtRp2110
(dp2111
g62
(dp2112
g70
I3
ssg71
g2106
sg64
(lp2113
S'stable'
p2114
asbasbasbasbasbasbasbag57
(g73
g59
NtRp2115
(dp2116
g62
(dp2117
sg71
g822
sg64
(lp2118
g57
(g78
g59
NtRp2119
(dp2120
g62
(dp2121
g82
g83
ssg71
g2115
sg64
(lp2122
S'wsgi_errors'
p2123
asbag57
(g78
g59
NtRp2124
(dp2125
g62
(dp2126
g89
g90
ssg71
g2115
sg64
(lp2127
S':'
asbag57
(g78
g59
NtRp2128
(dp2129
g62
(dp2130
sg71
g2115
sg64
(lp2131
g57
(g58
g59
NtRp2132
(dp2133
g62
(dp2134
g70
I4
ssg71
g2128
sg64
(lp2135
S'<mod_wsgi.Log object at 0x7fea3617d870>'
p2136
asbasbasbag57
(g73
g59
NtRp2137
(dp2138
g62
(dp2139
sg71
g822
sg64
(lp2140
g57
(g78
g59
NtRp2141
(dp2142
g62
(dp2143
g82
g83
ssg71
g2137
sg64
(lp2144
S'wsgi_file_wrapper'
p2145
asbag57
(g78
g59
NtRp2146
(dp2147
g62
(dp2148
g89
g90
ssg71
g2137
sg64
(lp2149
S':'
asbag57
(g78
g59
NtRp2150
(dp2151
g62
(dp2152
sg71
g2137
sg64
(lp2153
g57
(g58
g59
NtRp2154
(dp2155
g62
(dp2156
g70
I4
ssg71
g2150
sg64
(lp2157
S'<built-in method file_wrapper of mod_wsgi.Adapter object at 0x7fea3617abe8>'
p2158
asbasbasbag57
(g73
g59
NtRp2159
(dp2160
g62
(dp2161
sg71
g822
sg64
(lp2162
g57
(g78
g59
NtRp2163
(dp2164
g62
(dp2165
g82
g83
ssg71
g2159
sg64
(lp2166
S'wsgi_input'
p2167
asbag57
(g78
g59
NtRp2168
(dp2169
g62
(dp2170
g89
g90
ssg71
g2159
sg64
(lp2171
S':'
asbag57
(g78
g59
NtRp2172
(dp2173
g62
(dp2174
sg71
g2159
sg64
(lp2175
g57
(g58
g59
NtRp2176
(dp2177
g62
(dp2178
g70
I4
ssg71
g2172
sg64
(lp2179
S'<mod_wsgi.Input object at 0x7fea35479570>'
p2180
asbasbasbag57
(g73
g59
NtRp2181
(dp2182
g62
(dp2183
sg71
g822
sg64
(lp2184
g57
(g78
g59
NtRp2185
(dp2186
g62
(dp2187
g82
g83
ssg71
g2181
sg64
(lp2188
S'wsgi_multiprocess'
p2189
asbag57
(g78
g59
NtRp2190
(dp2191
g62
(dp2192
g89
g90
ssg71
g2181
sg64
(lp2193
S':'
asbag57
(g78
g59
NtRp2194
(dp2195
g62
(dp2196
sg71
g2181
sg64
(lp2197
g57
(g58
g59
NtRp2198
(dp2199
g62
(dp2200
g70
I4
ssg71
g2194
sg64
(lp2201
S'True'
p2202
asbasbasbag57
(g73
g59
NtRp2203
(dp2204
g62
(dp2205
sg71
g822
sg64
(lp2206
g57
(g78
g59
NtRp2207
(dp2208
g62
(dp2209
g82
g83
ssg71
g2203
sg64
(lp2210
S'wsgi_multithread'
p2211
asbag57
(g78
g59
NtRp2212
(dp2213
g62
(dp2214
g89
g90
ssg71
g2203
sg64
(lp2215
S':'
asbag57
(g78
g59
NtRp2216
(dp2217
g62
(dp2218
sg71
g2203
sg64
(lp2219
g57
(g58
g59
NtRp2220
(dp2221
g62
(dp2222
g70
I4
ssg71
g2216
sg64
(lp2223
g100
asbasbasbag57
(g73
g59
NtRp2224
(dp2225
g62
(dp2226
sg71
g822
sg64
(lp2227
g57
(g78
g59
NtRp2228
(dp2229
g62
(dp2230
g82
g83
ssg71
g2224
sg64
(lp2231
S'wsgi_run_once'
p2232
asbag57
(g78
g59
NtRp2233
(dp2234
g62
(dp2235
g89
g90
ssg71
g2224
sg64
(lp2236
S':'
asbag57
(g78
g59
NtRp2237
(dp2238
g62
(dp2239
sg71
g2224
sg64
(lp2240
g57
(g58
g59
NtRp2241
(dp2242
g62
(dp2243
g70
I4
ssg71
g2237
sg64
(lp2244
g100
asbasbasbag57
(g73
g59
NtRp2245
(dp2246
g62
(dp2247
sg71
g822
sg64
(lp2248
g57
(g78
g59
NtRp2249
(dp2250
g62
(dp2251
g82
g83
ssg71
g2245
sg64
(lp2252
S'wsgi_url_scheme'
p2253
asbag57
(g78
g59
NtRp2254
(dp2255
g62
(dp2256
g89
g90
ssg71
g2245
sg64
(lp2257
S':'
asbag57
(g78
g59
NtRp2258
(dp2259
g62
(dp2260
sg71
g2245
sg64
(lp2261
g57
(g58
g59
NtRp2262
(dp2263
g62
(dp2264
g70
I4
ssg71
g2258
sg64
(lp2265
S'https'
p2266
asbasbasbag57
(g73
g59
NtRp2267
(dp2268
g62
(dp2269
sg71
g822
sg64
(lp2270
g57
(g78
g59
NtRp2271
(dp2272
g62
(dp2273
g82
g83
ssg71
g2267
sg64
(lp2274
S'wsgi_version'
p2275
asbag57
(g78
g59
NtRp2276
(dp2277
g62
(dp2278
g89
g90
ssg71
g2267
sg64
(lp2279
S':'
asbag57
(g78
g59
NtRp2280
(dp2281
g62
(dp2282
sg71
g2267
sg64
(lp2283
g57
(g58
g59
NtRp2284
(dp2285
g62
(dp2286
g70
I4
ssg71
g2280
sg64
(lp2287
g57
(g66
g59
NtRp2288
(dp2289
g62
(dp2290
g70
I3
ssg71
Nsg64
(lp2291
g57
(g73
g59
NtRp2292
(dp2293
g62
(dp2294
sg71
g2288
sg64
(lp2295
g57
(g78
g59
NtRp2296
(dp2297
g62
(dp2298
sg71
g2292
sg64
(lp2299
g57
(g58
g59
NtRp2300
(dp2301
g62
(dp2302
g70
I3
ssg71
g2296
sg64
(lp2303
S'1'
asbasbasbag57
(g73
g59
NtRp2304
(dp2305
g62
(dp2306
sg71
g2288
sg64
(lp2307
g57
(g78
g59
NtRp2308
(dp2309
g62
(dp2310
sg71
g2304
sg64
(lp2311
g57
(g58
g59
NtRp2312
(dp2313
g62
(dp2314
g70
I3
ssg71
g2308
sg64
(lp2315
S'1'
asbasbasbasbasbasbasbasbasbasbasbag57
(g73
g59
NtRp2316
(dp2317
g62
(dp2318
sg71
g67
sg64
(lp2319
g57
(g78
g59
NtRp2320
(dp2321
g62
(dp2322
g82
g83
ssg71
g2316
sg64
(lp2323
S'extension'
p2324
asbag57
(g78
g59
NtRp2325
(dp2326
g62
(dp2327
g89
g90
ssg71
g2316
sg64
(lp2328
S':'
asbag57
(g78
g59
NtRp2329
(dp2330
g62
(dp2331
sg71
g2316
sg64
(lp2332
g57
(g58
g59
NtRp2333
(dp2334
g62
(dp2335
g70
I5
ssg71
g2329
sg64
(lp2336
S'html'
p2337
asbasbasbag57
(g73
g59
NtRp2338
(dp2339
g62
(dp2340
sg71
g67
sg64
(lp2341
g57
(g78
g59
NtRp2342
(dp2343
g62
(dp2344
g82
g83
ssg71
g2338
sg64
(lp2345
S'folder'
p2346
asbag57
(g78
g59
NtRp2347
(dp2348
g62
(dp2349
g89
g90
ssg71
g2338
sg64
(lp2350
S':'
asbag57
(g78
g59
NtRp2351
(dp2352
g62
(dp2353
sg71
g2338
sg64
(lp2354
g57
(g58
g59
NtRp2355
(dp2356
g62
(dp2357
g70
I5
ssg71
g2351
sg64
(lp2358
S'/home/lyonwj/webapps/web2py/web2py/applications/NewzTrader/'
p2359
asbasbasbag57
(g73
g59
NtRp2360
(dp2361
g62
(dp2362
sg71
g67
sg64
(lp2363
g57
(g78
g59
NtRp2364
(dp2365
g62
(dp2366
g82
g83
ssg71
g2360
sg64
(lp2367
S'function'
p2368
asbag57
(g78
g59
NtRp2369
(dp2370
g62
(dp2371
g89
g90
ssg71
g2360
sg64
(lp2372
S':'
asbag57
(g78
g59
NtRp2373
(dp2374
g62
(dp2375
sg71
g2360
sg64
(lp2376
g57
(g58
g59
NtRp2377
(dp2378
g62
(dp2379
g70
I5
ssg71
g2373
sg64
(lp2380
S'index'
p2381
asbasbasbag57
(g73
g59
NtRp2382
(dp2383
g62
(dp2384
sg71
g67
sg64
(lp2385
g57
(g78
g59
NtRp2386
(dp2387
g62
(dp2388
g82
g83
ssg71
g2382
sg64
(lp2389
S'get_vars'
p2390
asbag57
(g78
g59
NtRp2391
(dp2392
g62
(dp2393
g89
g90
ssg71
g2382
sg64
(lp2394
S':'
asbag57
(g78
g59
NtRp2395
(dp2396
g62
(dp2397
sg71
g2382
sg64
(lp2398
g57
(g58
g59
NtRp2399
(dp2400
g62
(dp2401
g70
I5
ssg71
g2395
sg64
(lp2402
g57
(g66
g59
NtRp2403
(dp2404
g62
(dp2405
g70
I4
ssg71
Nsg64
(lp2406
sbasbasbasbag57
(g73
g59
NtRp2407
(dp2408
g62
(dp2409
sg71
g67
sg64
(lp2410
g57
(g78
g59
NtRp2411
(dp2412
g62
(dp2413
g82
g83
ssg71
g2407
sg64
(lp2414
S'global_settings'
p2415
asbag57
(g78
g59
NtRp2416
(dp2417
g62
(dp2418
g89
g90
ssg71
g2407
sg64
(lp2419
S':'
asbag57
(g78
g59
NtRp2420
(dp2421
g62
(dp2422
sg71
g2407
sg64
(lp2423
g57
(g58
g59
NtRp2424
(dp2425
g62
(dp2426
g70
I5
ssg71
g2420
sg64
(lp2427
g57
(g66
g59
NtRp2428
(dp2429
g62
(dp2430
g70
I4
ssg71
Nsg64
(lp2431
g57
(g73
g59
NtRp2432
(dp2433
g62
(dp2434
sg71
g2428
sg64
(lp2435
g57
(g78
g59
NtRp2436
(dp2437
g62
(dp2438
g82
g83
ssg71
g2432
sg64
(lp2439
g834
asbag57
(g78
g59
NtRp2440
(dp2441
g62
(dp2442
g89
g90
ssg71
g2432
sg64
(lp2443
S':'
asbag57
(g78
g59
NtRp2444
(dp2445
g62
(dp2446
sg71
g2432
sg64
(lp2447
g57
(g58
g59
NtRp2448
(dp2449
g62
(dp2450
g70
I4
ssg71
g2444
sg64
(lp2451
S"set(['/home/lyonwj/webapps/web2py/web2py/applications/admin/', '/home/lyonwj/webapps/web2py/web2py/applications/NewzTrader/', '/home/lyonwj/webapps/web2py/web2py/applications/init/', '/home/lyonwj/webapps/web2py/web2py/applications/examples/'])"
p2452
asbasbasbag57
(g73
g59
NtRp2453
(dp2454
g62
(dp2455
sg71
g2428
sg64
(lp2456
g57
(g78
g59
NtRp2457
(dp2458
g62
(dp2459
g82
g83
ssg71
g2453
sg64
(lp2460
g856
asbag57
(g78
g59
NtRp2461
(dp2462
g62
(dp2463
g89
g90
ssg71
g2453
sg64
(lp2464
S':'
asbag57
(g78
g59
NtRp2465
(dp2466
g62
(dp2467
sg71
g2453
sg64
(lp2468
g57
(g58
g59
NtRp2469
(dp2470
g62
(dp2471
g70
I4
ssg71
g2465
sg64
(lp2472
g869
asbasbasbag57
(g73
g59
NtRp2473
(dp2474
g62
(dp2475
sg71
g2428
sg64
(lp2476
g57
(g78
g59
NtRp2477
(dp2478
g62
(dp2479
g82
g83
ssg71
g2473
sg64
(lp2480
g878
asbag57
(g78
g59
NtRp2481
(dp2482
g62
(dp2483
g89
g90
ssg71
g2473
sg64
(lp2484
S':'
asbag57
(g78
g59
NtRp2485
(dp2486
g62
(dp2487
sg71
g2473
sg64
(lp2488
g57
(g58
g59
NtRp2489
(dp2490
g62
(dp2491
g70
I4
ssg71
g2485
sg64
(lp2492
S'set([])'
p2493
asbasbasbag57
(g73
g59
NtRp2494
(dp2495
g62
(dp2496
sg71
g2428
sg64
(lp2497
g57
(g78
g59
NtRp2498
(dp2499
g62
(dp2500
g82
g83
ssg71
g2494
sg64
(lp2501
g900
asbag57
(g78
g59
NtRp2502
(dp2503
g62
(dp2504
g89
g90
ssg71
g2494
sg64
(lp2505
S':'
asbag57
(g78
g59
NtRp2506
(dp2507
g62
(dp2508
sg71
g2494
sg64
(lp2509
g57
(g58
g59
NtRp2510
(dp2511
g62
(dp2512
g70
I4
ssg71
g2506
sg64
(lp2513
g100
asbasbasbag57
(g73
g59
NtRp2514
(dp2515
g62
(dp2516
sg71
g2428
sg64
(lp2517
g57
(g78
g59
NtRp2518
(dp2519
g62
(dp2520
g82
g83
ssg71
g2514
sg64
(lp2521
g965
asbag57
(g78
g59
NtRp2522
(dp2523
g62
(dp2524
g89
g90
ssg71
g2514
sg64
(lp2525
S':'
asbag57
(g78
g59
NtRp2526
(dp2527
g62
(dp2528
sg71
g2514
sg64
(lp2529
g57
(g58
g59
NtRp2530
(dp2531
g62
(dp2532
g70
I4
ssg71
g2526
sg64
(lp2533
g869
asbasbasbag57
(g73
g59
NtRp2534
(dp2535
g62
(dp2536
sg71
g2428
sg64
(lp2537
g57
(g78
g59
NtRp2538
(dp2539
g62
(dp2540
g82
g83
ssg71
g2534
sg64
(lp2541
g1380
asbag57
(g78
g59
NtRp2542
(dp2543
g62
(dp2544
g89
g90
ssg71
g2534
sg64
(lp2545
S':'
asbag57
(g78
g59
NtRp2546
(dp2547
g62
(dp2548
sg71
g2534
sg64
(lp2549
g57
(g58
g59
NtRp2550
(dp2551
g62
(dp2552
g70
I4
ssg71
g2546
sg64
(lp2553
g100
asbasbasbag57
(g73
g59
NtRp2554
(dp2555
g62
(dp2556
sg71
g2428
sg64
(lp2557
g57
(g78
g59
NtRp2558
(dp2559
g62
(dp2560
g82
g83
ssg71
g2554
sg64
(lp2561
g1401
asbag57
(g78
g59
NtRp2562
(dp2563
g62
(dp2564
g89
g90
ssg71
g2554
sg64
(lp2565
S':'
asbag57
(g78
g59
NtRp2566
(dp2567
g62
(dp2568
sg71
g2554
sg64
(lp2569
g57
(g58
g59
NtRp2570
(dp2571
g62
(dp2572
g70
I4
ssg71
g2566
sg64
(lp2573
g100
asbasbasbag57
(g73
g59
NtRp2574
(dp2575
g62
(dp2576
sg71
g2428
sg64
(lp2577
g57
(g78
g59
NtRp2578
(dp2579
g62
(dp2580
g82
g83
ssg71
g2574
sg64
(lp2581
g2035
asbag57
(g78
g59
NtRp2582
(dp2583
g62
(dp2584
g89
g90
ssg71
g2574
sg64
(lp2585
S':'
asbag57
(g78
g59
NtRp2586
(dp2587
g62
(dp2588
sg71
g2574
sg64
(lp2589
g57
(g58
g59
NtRp2590
(dp2591
g62
(dp2592
g70
I4
ssg71
g2586
sg64
(lp2593
g57
(g66
g59
NtRp2594
(dp2595
g62
(dp2596
g70
I3
ssg71
Nsg64
(lp2597
g57
(g73
g59
NtRp2598
(dp2599
g62
(dp2600
sg71
g2594
sg64
(lp2601
g57
(g78
g59
NtRp2602
(dp2603
g62
(dp2604
sg71
g2598
sg64
(lp2605
g57
(g58
g59
NtRp2606
(dp2607
g62
(dp2608
g70
I3
ssg71
g2602
sg64
(lp2609
S'1'
asbasbasbag57
(g73
g59
NtRp2610
(dp2611
g62
(dp2612
sg71
g2594
sg64
(lp2613
g57
(g78
g59
NtRp2614
(dp2615
g62
(dp2616
sg71
g2610
sg64
(lp2617
g57
(g58
g59
NtRp2618
(dp2619
g62
(dp2620
g70
I3
ssg71
g2614
sg64
(lp2621
S'99'
p2622
asbasbasbag57
(g73
g59
NtRp2623
(dp2624
g62
(dp2625
sg71
g2594
sg64
(lp2626
g57
(g78
g59
NtRp2627
(dp2628
g62
(dp2629
sg71
g2623
sg64
(lp2630
g57
(g58
g59
NtRp2631
(dp2632
g62
(dp2633
g70
I3
ssg71
g2627
sg64
(lp2634
S'7'
asbasbasbag57
(g73
g59
NtRp2635
(dp2636
g62
(dp2637
sg71
g2594
sg64
(lp2638
g57
(g78
g59
NtRp2639
(dp2640
g62
(dp2641
sg71
g2635
sg64
(lp2642
g57
(g58
g59
NtRp2643
(dp2644
g62
(dp2645
g70
I3
ssg71
g2639
sg64
(lp2646
S'datetime.datetime(2012, 3, 4, 22, 12, 8)'
p2647
asbasbasbag57
(g73
g59
NtRp2648
(dp2649
g62
(dp2650
sg71
g2594
sg64
(lp2651
g57
(g78
g59
NtRp2652
(dp2653
g62
(dp2654
sg71
g2648
sg64
(lp2655
g57
(g58
g59
NtRp2656
(dp2657
g62
(dp2658
g70
I3
ssg71
g2652
sg64
(lp2659
g2114
asbasbasbasbasbasbasbasbasbasbasbag57
(g73
g59
NtRp2660
(dp2661
g62
(dp2662
sg71
g67
sg64
(lp2663
g57
(g78
g59
NtRp2664
(dp2665
g62
(dp2666
g82
g83
ssg71
g2660
sg64
(lp2667
S'is_https'
p2668
asbag57
(g78
g59
NtRp2669
(dp2670
g62
(dp2671
g89
g90
ssg71
g2660
sg64
(lp2672
S':'
asbag57
(g78
g59
NtRp2673
(dp2674
g62
(dp2675
sg71
g2660
sg64
(lp2676
g57
(g58
g59
NtRp2677
(dp2678
g62
(dp2679
g70
I5
ssg71
g2673
sg64
(lp2680
g2202
asbasbasbag57
(g73
g59
NtRp2681
(dp2682
g62
(dp2683
sg71
g67
sg64
(lp2684
g57
(g78
g59
NtRp2685
(dp2686
g62
(dp2687
g82
g83
ssg71
g2681
sg64
(lp2688
S'is_local'
p2689
asbag57
(g78
g59
NtRp2690
(dp2691
g62
(dp2692
g89
g90
ssg71
g2681
sg64
(lp2693
S':'
asbag57
(g78
g59
NtRp2694
(dp2695
g62
(dp2696
sg71
g2681
sg64
(lp2697
g57
(g58
g59
NtRp2698
(dp2699
g62
(dp2700
g70
I5
ssg71
g2694
sg64
(lp2701
g2202
asbasbasbag57
(g73
g59
NtRp2702
(dp2703
g62
(dp2704
sg71
g67
sg64
(lp2705
g57
(g78
g59
NtRp2706
(dp2707
g62
(dp2708
g82
g83
ssg71
g2702
sg64
(lp2709
S'is_restful'
p2710
asbag57
(g78
g59
NtRp2711
(dp2712
g62
(dp2713
g89
g90
ssg71
g2702
sg64
(lp2714
S':'
asbag57
(g78
g59
NtRp2715
(dp2716
g62
(dp2717
sg71
g2702
sg64
(lp2718
g57
(g58
g59
NtRp2719
(dp2720
g62
(dp2721
g70
I5
ssg71
g2715
sg64
(lp2722
g100
asbasbasbag57
(g73
g59
NtRp2723
(dp2724
g62
(dp2725
sg71
g67
sg64
(lp2726
g57
(g78
g59
NtRp2727
(dp2728
g62
(dp2729
g82
g83
ssg71
g2723
sg64
(lp2730
S'now'
p2731
asbag57
(g78
g59
NtRp2732
(dp2733
g62
(dp2734
g89
g90
ssg71
g2723
sg64
(lp2735
S':'
asbag57
(g78
g59
NtRp2736
(dp2737
g62
(dp2738
sg71
g2723
sg64
(lp2739
g57
(g58
g59
NtRp2740
(dp2741
g62
(dp2742
g70
I5
ssg71
g2736
sg64
(lp2743
S'datetime.datetime(2012, 11, 17, 3, 16, 56, 239890)'
p2744
asbasbasbag57
(g73
g59
NtRp2745
(dp2746
g62
(dp2747
sg71
g67
sg64
(lp2748
g57
(g78
g59
NtRp2749
(dp2750
g62
(dp2751
g82
g83
ssg71
g2745
sg64
(lp2752
S'post_vars'
p2753
asbag57
(g78
g59
NtRp2754
(dp2755
g62
(dp2756
g89
g90
ssg71
g2745
sg64
(lp2757
S':'
asbag57
(g78
g59
NtRp2758
(dp2759
g62
(dp2760
sg71
g2745
sg64
(lp2761
g57
(g58
g59
NtRp2762
(dp2763
g62
(dp2764
g70
I5
ssg71
g2758
sg64
(lp2765
g57
(g66
g59
NtRp2766
(dp2767
g62
(dp2768
g70
I4
ssg71
Nsg64
(lp2769
sbasbasbasbag57
(g73
g59
NtRp2770
(dp2771
g62
(dp2772
sg71
g67
sg64
(lp2773
g57
(g78
g59
NtRp2774
(dp2775
g62
(dp2776
g82
g83
ssg71
g2770
sg64
(lp2777
S'url'
p2778
asbag57
(g78
g59
NtRp2779
(dp2780
g62
(dp2781
g89
g90
ssg71
g2770
sg64
(lp2782
S':'
asbag57
(g78
g59
NtRp2783
(dp2784
g62
(dp2785
sg71
g2770
sg64
(lp2786
g57
(g58
g59
NtRp2787
(dp2788
g62
(dp2789
g70
I5
ssg71
g2783
sg64
(lp2790
S'/NewzTrader/default/index'
p2791
asbasbasbag57
(g73
g59
NtRp2792
(dp2793
g62
(dp2794
sg71
g67
sg64
(lp2795
g57
(g78
g59
NtRp2796
(dp2797
g62
(dp2798
g82
g83
ssg71
g2792
sg64
(lp2799
S'utcnow'
p2800
asbag57
(g78
g59
NtRp2801
(dp2802
g62
(dp2803
g89
g90
ssg71
g2792
sg64
(lp2804
S':'
asbag57
(g78
g59
NtRp2805
(dp2806
g62
(dp2807
sg71
g2792
sg64
(lp2808
g57
(g58
g59
NtRp2809
(dp2810
g62
(dp2811
g70
I5
ssg71
g2805
sg64
(lp2812
S'datetime.datetime(2012, 11, 17, 3, 16, 56, 239912)'
p2813
asbasbasbag57
(g73
g59
NtRp2814
(dp2815
g62
(dp2816
sg71
g67
sg64
(lp2817
g57
(g78
g59
NtRp2818
(dp2819
g62
(dp2820
g82
g83
ssg71
g2814
sg64
(lp2821
S'uuid'
p2822
asbag57
(g78
g59
NtRp2823
(dp2824
g62
(dp2825
g89
g90
ssg71
g2814
sg64
(lp2826
S':'
asbag57
(g78
g59
NtRp2827
(dp2828
g62
(dp2829
sg71
g2814
sg64
(lp2830
g57
(g58
g59
NtRp2831
(dp2832
g62
(dp2833
g70
I5
ssg71
g2827
sg64
(lp2834
S'NewzTrader/184.166.90.89.2012-11-17.03-16-56.4f663387-fe3a-4048-8032-f810dd2dee71'
p2835
asbasbasbag57
(g73
g59
NtRp2836
(dp2837
g62
(dp2838
sg71
g67
sg64
(lp2839
g57
(g78
g59
NtRp2840
(dp2841
g62
(dp2842
g82
g83
ssg71
g2836
sg64
(lp2843
S'vars'
p2844
asbag57
(g78
g59
NtRp2845
(dp2846
g62
(dp2847
g89
g90
ssg71
g2836
sg64
(lp2848
S':'
asbag57
(g78
g59
NtRp2849
(dp2850
g62
(dp2851
sg71
g2836
sg64
(lp2852
g57
(g58
g59
NtRp2853
(dp2854
g62
(dp2855
g70
I5
ssg71
g2849
sg64
(lp2856
g57
(g66
g59
NtRp2857
(dp2858
g62
(dp2859
g70
I4
ssg71
Nsg64
(lp2860
sbasbasbasbag57
(g73
g59
NtRp2861
(dp2862
g62
(dp2863
sg71
g67
sg64
(lp2864
g57
(g78
g59
NtRp2865
(dp2866
g62
(dp2867
g82
g83
ssg71
g2861
sg64
(lp2868
S'wsgi'
p2869
asbag57
(g78
g59
NtRp2870
(dp2871
g62
(dp2872
g89
g90
ssg71
g2861
sg64
(lp2873
S':'
asbag57
(g78
g59
NtRp2874
(dp2875
g62
(dp2876
sg71
g2861
sg64
(lp2877
g57
(g58
g59
NtRp2878
(dp2879
g62
(dp2880
g70
I5
ssg71
g2874
sg64
(lp2881
g57
(g66
g59
NtRp2882
(dp2883
g62
(dp2884
g70
I4
ssg71
Nsg64
(lp2885
g57
(g73
g59
NtRp2886
(dp2887
g62
(dp2888
sg71
g2882
sg64
(lp2889
g57
(g78
g59
NtRp2890
(dp2891
g62
(dp2892
g82
g83
ssg71
g2886
sg64
(lp2893
S'environ'
p2894
asbag57
(g78
g59
NtRp2895
(dp2896
g62
(dp2897
g89
g90
ssg71
g2886
sg64
(lp2898
S':'
asbag57
(g78
g59
NtRp2899
(dp2900
g62
(dp2901
sg71
g2886
sg64
(lp2902
g57
(g58
g59
NtRp2903
(dp2904
g62
(dp2905
g70
I4
ssg71
g2899
sg64
(lp2906
g57
(g66
g59
NtRp2907
(dp2908
g62
(dp2909
g70
I3
ssg71
Nsg64
(lp2910
g57
(g73
g59
NtRp2911
(dp2912
g62
(dp2913
sg71
g2907
sg64
(lp2914
g57
(g78
g59
NtRp2915
(dp2916
g62
(dp2917
g82
g83
ssg71
g2911
sg64
(lp2918
S'DOCUMENT_ROOT'
p2919
asbag57
(g78
g59
NtRp2920
(dp2921
g62
(dp2922
g89
g90
ssg71
g2911
sg64
(lp2923
S':'
asbag57
(g78
g59
NtRp2924
(dp2925
g62
(dp2926
sg71
g2911
sg64
(lp2927
g57
(g58
g59
NtRp2928
(dp2929
g62
(dp2930
g70
I3
ssg71
g2924
sg64
(lp2931
g934
asbasbasbag57
(g73
g59
NtRp2932
(dp2933
g62
(dp2934
sg71
g2907
sg64
(lp2935
g57
(g78
g59
NtRp2936
(dp2937
g62
(dp2938
g82
g83
ssg71
g2932
sg64
(lp2939
S'GATEWAY_INTERFACE'
p2940
asbag57
(g78
g59
NtRp2941
(dp2942
g62
(dp2943
g89
g90
ssg71
g2932
sg64
(lp2944
S':'
asbag57
(g78
g59
NtRp2945
(dp2946
g62
(dp2947
sg71
g2932
sg64
(lp2948
g57
(g58
g59
NtRp2949
(dp2950
g62
(dp2951
g70
I3
ssg71
g2945
sg64
(lp2952
g956
asbasbasbag57
(g73
g59
NtRp2953
(dp2954
g62
(dp2955
sg71
g2907
sg64
(lp2956
g57
(g78
g59
NtRp2957
(dp2958
g62
(dp2959
g82
g83
ssg71
g2953
sg64
(lp2960
S'HTTPS'
p2961
asbag57
(g78
g59
NtRp2962
(dp2963
g62
(dp2964
g89
g90
ssg71
g2953
sg64
(lp2965
S':'
asbag57
(g78
g59
NtRp2966
(dp2967
g62
(dp2968
sg71
g2953
sg64
(lp2969
g57
(g58
g59
NtRp2970
(dp2971
g62
(dp2972
g70
I3
ssg71
g2966
sg64
(lp2973
S'1'
asbasbasbag57
(g73
g59
NtRp2974
(dp2975
g62
(dp2976
sg71
g2907
sg64
(lp2977
g57
(g78
g59
NtRp2978
(dp2979
g62
(dp2980
g82
g83
ssg71
g2974
sg64
(lp2981
S'HTTP_ACCEPT'
p2982
asbag57
(g78
g59
NtRp2983
(dp2984
g62
(dp2985
g89
g90
ssg71
g2974
sg64
(lp2986
S':'
asbag57
(g78
g59
NtRp2987
(dp2988
g62
(dp2989
sg71
g2974
sg64
(lp2990
g57
(g58
g59
NtRp2991
(dp2992
g62
(dp2993
g70
I3
ssg71
g2987
sg64
(lp2994
g999
asbasbasbag57
(g73
g59
NtRp2995
(dp2996
g62
(dp2997
sg71
g2907
sg64
(lp2998
g57
(g78
g59
NtRp2999
(dp3000
g62
(dp3001
g82
g83
ssg71
g2995
sg64
(lp3002
S'HTTP_ACCEPT_CHARSET'
p3003
asbag57
(g78
g59
NtRp3004
(dp3005
g62
(dp3006
g89
g90
ssg71
g2995
sg64
(lp3007
S':'
asbag57
(g78
g59
NtRp3008
(dp3009
g62
(dp3010
sg71
g2995
sg64
(lp3011
g57
(g58
g59
NtRp3012
(dp3013
g62
(dp3014
g70
I3
ssg71
g3008
sg64
(lp3015
g1021
asbasbasbag57
(g73
g59
NtRp3016
(dp3017
g62
(dp3018
sg71
g2907
sg64
(lp3019
g57
(g78
g59
NtRp3020
(dp3021
g62
(dp3022
g82
g83
ssg71
g3016
sg64
(lp3023
S'HTTP_ACCEPT_ENCODING'
p3024
asbag57
(g78
g59
NtRp3025
(dp3026
g62
(dp3027
g89
g90
ssg71
g3016
sg64
(lp3028
S':'
asbag57
(g78
g59
NtRp3029
(dp3030
g62
(dp3031
sg71
g3016
sg64
(lp3032
g57
(g58
g59
NtRp3033
(dp3034
g62
(dp3035
g70
I3
ssg71
g3029
sg64
(lp3036
g1043
asbasbasbag57
(g73
g59
NtRp3037
(dp3038
g62
(dp3039
sg71
g2907
sg64
(lp3040
g57
(g78
g59
NtRp3041
(dp3042
g62
(dp3043
g82
g83
ssg71
g3037
sg64
(lp3044
S'HTTP_ACCEPT_LANGUAGE'
p3045
asbag57
(g78
g59
NtRp3046
(dp3047
g62
(dp3048
g89
g90
ssg71
g3037
sg64
(lp3049
S':'
asbag57
(g78
g59
NtRp3050
(dp3051
g62
(dp3052
sg71
g3037
sg64
(lp3053
g57
(g58
g59
NtRp3054
(dp3055
g62
(dp3056
g70
I3
ssg71
g3050
sg64
(lp3057
g1065
asbasbasbag57
(g73
g59
NtRp3058
(dp3059
g62
(dp3060
sg71
g2907
sg64
(lp3061
g57
(g78
g59
NtRp3062
(dp3063
g62
(dp3064
g82
g83
ssg71
g3058
sg64
(lp3065
S'HTTP_CACHE_CONTROL'
p3066
asbag57
(g78
g59
NtRp3067
(dp3068
g62
(dp3069
g89
g90
ssg71
g3058
sg64
(lp3070
S':'
asbag57
(g78
g59
NtRp3071
(dp3072
g62
(dp3073
sg71
g3058
sg64
(lp3074
g57
(g58
g59
NtRp3075
(dp3076
g62
(dp3077
g70
I3
ssg71
g3071
sg64
(lp3078
g1087
asbasbasbag57
(g73
g59
NtRp3079
(dp3080
g62
(dp3081
sg71
g2907
sg64
(lp3082
g57
(g78
g59
NtRp3083
(dp3084
g62
(dp3085
g82
g83
ssg71
g3079
sg64
(lp3086
S'HTTP_CONNECTION'
p3087
asbag57
(g78
g59
NtRp3088
(dp3089
g62
(dp3090
g89
g90
ssg71
g3079
sg64
(lp3091
S':'
asbag57
(g78
g59
NtRp3092
(dp3093
g62
(dp3094
sg71
g3079
sg64
(lp3095
g57
(g58
g59
NtRp3096
(dp3097
g62
(dp3098
g70
I3
ssg71
g3092
sg64
(lp3099
g1109
asbasbasbag57
(g73
g59
NtRp3100
(dp3101
g62
(dp3102
sg71
g2907
sg64
(lp3103
g57
(g78
g59
NtRp3104
(dp3105
g62
(dp3106
g82
g83
ssg71
g3100
sg64
(lp3107
S'HTTP_COOKIE'
p3108
asbag57
(g78
g59
NtRp3109
(dp3110
g62
(dp3111
g89
g90
ssg71
g3100
sg64
(lp3112
S':'
asbag57
(g78
g59
NtRp3113
(dp3114
g62
(dp3115
sg71
g3100
sg64
(lp3116
g57
(g58
g59
NtRp3117
(dp3118
g62
(dp3119
g70
I3
ssg71
g3113
sg64
(lp3120
g1131
asbasbasbag57
(g73
g59
NtRp3121
(dp3122
g62
(dp3123
sg71
g2907
sg64
(lp3124
g57
(g78
g59
NtRp3125
(dp3126
g62
(dp3127
g82
g83
ssg71
g3121
sg64
(lp3128
S'HTTP_FORWARDED_REQUEST_URI'
p3129
asbag57
(g78
g59
NtRp3130
(dp3131
g62
(dp3132
g89
g90
ssg71
g3121
sg64
(lp3133
S':'
asbag57
(g78
g59
NtRp3134
(dp3135
g62
(dp3136
sg71
g3121
sg64
(lp3137
g57
(g58
g59
NtRp3138
(dp3139
g62
(dp3140
g70
I3
ssg71
g3134
sg64
(lp3141
g1153
asbasbasbag57
(g73
g59
NtRp3142
(dp3143
g62
(dp3144
sg71
g2907
sg64
(lp3145
g57
(g78
g59
NtRp3146
(dp3147
g62
(dp3148
g82
g83
ssg71
g3142
sg64
(lp3149
S'HTTP_HOST'
p3150
asbag57
(g78
g59
NtRp3151
(dp3152
g62
(dp3153
g89
g90
ssg71
g3142
sg64
(lp3154
S':'
asbag57
(g78
g59
NtRp3155
(dp3156
g62
(dp3157
sg71
g3142
sg64
(lp3158
g57
(g58
g59
NtRp3159
(dp3160
g62
(dp3161
g70
I3
ssg71
g3155
sg64
(lp3162
g1175
asbasbasbag57
(g73
g59
NtRp3163
(dp3164
g62
(dp3165
sg71
g2907
sg64
(lp3166
g57
(g78
g59
NtRp3167
(dp3168
g62
(dp3169
g82
g83
ssg71
g3163
sg64
(lp3170
S'HTTP_HTTPS'
p3171
asbag57
(g78
g59
NtRp3172
(dp3173
g62
(dp3174
g89
g90
ssg71
g3163
sg64
(lp3175
S':'
asbag57
(g78
g59
NtRp3176
(dp3177
g62
(dp3178
sg71
g3163
sg64
(lp3179
g57
(g58
g59
NtRp3180
(dp3181
g62
(dp3182
g70
I3
ssg71
g3176
sg64
(lp3183
g1219
asbasbasbag57
(g73
g59
NtRp3184
(dp3185
g62
(dp3186
sg71
g2907
sg64
(lp3187
g57
(g78
g59
NtRp3188
(dp3189
g62
(dp3190
g82
g83
ssg71
g3184
sg64
(lp3191
S'HTTP_HTTP_X_FORWARDED_PROTO'
p3192
asbag57
(g78
g59
NtRp3193
(dp3194
g62
(dp3195
g89
g90
ssg71
g3184
sg64
(lp3196
S':'
asbag57
(g78
g59
NtRp3197
(dp3198
g62
(dp3199
sg71
g3184
sg64
(lp3200
g57
(g58
g59
NtRp3201
(dp3202
g62
(dp3203
g70
I3
ssg71
g3197
sg64
(lp3204
g1197
asbasbasbag57
(g73
g59
NtRp3205
(dp3206
g62
(dp3207
sg71
g2907
sg64
(lp3208
g57
(g78
g59
NtRp3209
(dp3210
g62
(dp3211
g82
g83
ssg71
g3205
sg64
(lp3212
S'HTTP_USER_AGENT'
p3213
asbag57
(g78
g59
NtRp3214
(dp3215
g62
(dp3216
g89
g90
ssg71
g3205
sg64
(lp3217
S':'
asbag57
(g78
g59
NtRp3218
(dp3219
g62
(dp3220
sg71
g3205
sg64
(lp3221
g57
(g58
g59
NtRp3222
(dp3223
g62
(dp3224
g70
I3
ssg71
g3218
sg64
(lp3225
g1241
asbasbasbag57
(g73
g59
NtRp3226
(dp3227
g62
(dp3228
sg71
g2907
sg64
(lp3229
g57
(g78
g59
NtRp3230
(dp3231
g62
(dp3232
g82
g83
ssg71
g3226
sg64
(lp3233
S'HTTP_X_FORWARDED_FOR'
p3234
asbag57
(g78
g59
NtRp3235
(dp3236
g62
(dp3237
g89
g90
ssg71
g3226
sg64
(lp3238
S':'
asbag57
(g78
g59
NtRp3239
(dp3240
g62
(dp3241
sg71
g3226
sg64
(lp3242
g57
(g58
g59
NtRp3243
(dp3244
g62
(dp3245
g70
I3
ssg71
g3239
sg64
(lp3246
g190
asbasbasbag57
(g73
g59
NtRp3247
(dp3248
g62
(dp3249
sg71
g2907
sg64
(lp3250
g57
(g78
g59
NtRp3251
(dp3252
g62
(dp3253
g82
g83
ssg71
g3247
sg64
(lp3254
S'HTTP_X_FORWARDED_HOST'
p3255
asbag57
(g78
g59
NtRp3256
(dp3257
g62
(dp3258
g89
g90
ssg71
g3247
sg64
(lp3259
S':'
asbag57
(g78
g59
NtRp3260
(dp3261
g62
(dp3262
sg71
g3247
sg64
(lp3263
g57
(g58
g59
NtRp3264
(dp3265
g62
(dp3266
g70
I3
ssg71
g3260
sg64
(lp3267
g1284
asbasbasbag57
(g73
g59
NtRp3268
(dp3269
g62
(dp3270
sg71
g2907
sg64
(lp3271
g57
(g78
g59
NtRp3272
(dp3273
g62
(dp3274
g82
g83
ssg71
g3268
sg64
(lp3275
S'HTTP_X_FORWARDED_PROTO'
p3276
asbag57
(g78
g59
NtRp3277
(dp3278
g62
(dp3279
g89
g90
ssg71
g3268
sg64
(lp3280
S':'
asbag57
(g78
g59
NtRp3281
(dp3282
g62
(dp3283
sg71
g3268
sg64
(lp3284
g57
(g58
g59
NtRp3285
(dp3286
g62
(dp3287
g70
I3
ssg71
g3281
sg64
(lp3288
g1306
asbasbasbag57
(g73
g59
NtRp3289
(dp3290
g62
(dp3291
sg71
g2907
sg64
(lp3292
g57
(g78
g59
NtRp3293
(dp3294
g62
(dp3295
g82
g83
ssg71
g3289
sg64
(lp3296
S'HTTP_X_FORWARDED_SERVER'
p3297
asbag57
(g78
g59
NtRp3298
(dp3299
g62
(dp3300
g89
g90
ssg71
g3289
sg64
(lp3301
S':'
asbag57
(g78
g59
NtRp3302
(dp3303
g62
(dp3304
sg71
g3289
sg64
(lp3305
g57
(g58
g59
NtRp3306
(dp3307
g62
(dp3308
g70
I3
ssg71
g3302
sg64
(lp3309
g1328
asbasbasbag57
(g73
g59
NtRp3310
(dp3311
g62
(dp3312
sg71
g2907
sg64
(lp3313
g57
(g78
g59
NtRp3314
(dp3315
g62
(dp3316
g82
g83
ssg71
g3310
sg64
(lp3317
S'HTTP_X_FORWARDED_SSL'
p3318
asbag57
(g78
g59
NtRp3319
(dp3320
g62
(dp3321
g89
g90
ssg71
g3310
sg64
(lp3322
S':'
asbag57
(g78
g59
NtRp3323
(dp3324
g62
(dp3325
sg71
g3310
sg64
(lp3326
g57
(g58
g59
NtRp3327
(dp3328
g62
(dp3329
g70
I3
ssg71
g3323
sg64
(lp3330
g1350
asbasbasbag57
(g73
g59
NtRp3331
(dp3332
g62
(dp3333
sg71
g2907
sg64
(lp3334
g57
(g78
g59
NtRp3335
(dp3336
g62
(dp3337
g82
g83
ssg71
g3331
sg64
(lp3338
S'PATH_INFO'
p3339
asbag57
(g78
g59
NtRp3340
(dp3341
g62
(dp3342
g89
g90
ssg71
g3331
sg64
(lp3343
S':'
asbag57
(g78
g59
NtRp3344
(dp3345
g62
(dp3346
sg71
g3331
sg64
(lp3347
g57
(g58
g59
NtRp3348
(dp3349
g62
(dp3350
g70
I3
ssg71
g3344
sg64
(lp3351
g1678
asbasbasbag57
(g73
g59
NtRp3352
(dp3353
g62
(dp3354
sg71
g2907
sg64
(lp3355
g57
(g78
g59
NtRp3356
(dp3357
g62
(dp3358
g82
g83
ssg71
g3352
sg64
(lp3359
S'PATH_TRANSLATED'
p3360
asbag57
(g78
g59
NtRp3361
(dp3362
g62
(dp3363
g89
g90
ssg71
g3352
sg64
(lp3364
S':'
asbag57
(g78
g59
NtRp3365
(dp3366
g62
(dp3367
sg71
g3352
sg64
(lp3368
g57
(g58
g59
NtRp3369
(dp3370
g62
(dp3371
g70
I3
ssg71
g3365
sg64
(lp3372
g1700
asbasbasbag57
(g73
g59
NtRp3373
(dp3374
g62
(dp3375
sg71
g2907
sg64
(lp3376
g57
(g78
g59
NtRp3377
(dp3378
g62
(dp3379
g82
g83
ssg71
g3373
sg64
(lp3380
S'QUERY_STRING'
p3381
asbag57
(g78
g59
NtRp3382
(dp3383
g62
(dp3384
g89
g90
ssg71
g3373
sg64
(lp3385
S':'
asbag57
(g78
g59
NtRp3386
(dp3387
g62
(dp3388
sg71
g3373
sg64
(lp3389
g57
(g58
g59
NtRp3390
(dp3391
g62
(dp3392
g70
I3
ssg71
g3386
sg64
(lp3393
S''
asbasbasbag57
(g73
g59
NtRp3394
(dp3395
g62
(dp3396
sg71
g2907
sg64
(lp3397
g57
(g78
g59
NtRp3398
(dp3399
g62
(dp3400
g82
g83
ssg71
g3394
sg64
(lp3401
S'REMOTE_ADDR'
p3402
asbag57
(g78
g59
NtRp3403
(dp3404
g62
(dp3405
g89
g90
ssg71
g3394
sg64
(lp3406
S':'
asbag57
(g78
g59
NtRp3407
(dp3408
g62
(dp3409
sg71
g3394
sg64
(lp3410
g57
(g58
g59
NtRp3411
(dp3412
g62
(dp3413
g70
I3
ssg71
g3407
sg64
(lp3414
g1743
asbasbasbag57
(g73
g59
NtRp3415
(dp3416
g62
(dp3417
sg71
g2907
sg64
(lp3418
g57
(g78
g59
NtRp3419
(dp3420
g62
(dp3421
g82
g83
ssg71
g3415
sg64
(lp3422
S'REMOTE_PORT'
p3423
asbag57
(g78
g59
NtRp3424
(dp3425
g62
(dp3426
g89
g90
ssg71
g3415
sg64
(lp3427
S':'
asbag57
(g78
g59
NtRp3428
(dp3429
g62
(dp3430
sg71
g3415
sg64
(lp3431
g57
(g58
g59
NtRp3432
(dp3433
g62
(dp3434
g70
I3
ssg71
g3428
sg64
(lp3435
g1765
asbasbasbag57
(g73
g59
NtRp3436
(dp3437
g62
(dp3438
sg71
g2907
sg64
(lp3439
g57
(g78
g59
NtRp3440
(dp3441
g62
(dp3442
g82
g83
ssg71
g3436
sg64
(lp3443
S'REQUEST_METHOD'
p3444
asbag57
(g78
g59
NtRp3445
(dp3446
g62
(dp3447
g89
g90
ssg71
g3436
sg64
(lp3448
S':'
asbag57
(g78
g59
NtRp3449
(dp3450
g62
(dp3451
sg71
g3436
sg64
(lp3452
g57
(g58
g59
NtRp3453
(dp3454
g62
(dp3455
g70
I3
ssg71
g3449
sg64
(lp3456
g1787
asbasbasbag57
(g73
g59
NtRp3457
(dp3458
g62
(dp3459
sg71
g2907
sg64
(lp3460
g57
(g78
g59
NtRp3461
(dp3462
g62
(dp3463
g82
g83
ssg71
g3457
sg64
(lp3464
S'REQUEST_URI'
p3465
asbag57
(g78
g59
NtRp3466
(dp3467
g62
(dp3468
g89
g90
ssg71
g3457
sg64
(lp3469
S':'
asbag57
(g78
g59
NtRp3470
(dp3471
g62
(dp3472
sg71
g3457
sg64
(lp3473
g57
(g58
g59
NtRp3474
(dp3475
g62
(dp3476
g70
I3
ssg71
g3470
sg64
(lp3477
g1809
asbasbasbag57
(g73
g59
NtRp3478
(dp3479
g62
(dp3480
sg71
g2907
sg64
(lp3481
g57
(g78
g59
NtRp3482
(dp3483
g62
(dp3484
g82
g83
ssg71
g3478
sg64
(lp3485
S'SCRIPT_FILENAME'
p3486
asbag57
(g78
g59
NtRp3487
(dp3488
g62
(dp3489
g89
g90
ssg71
g3478
sg64
(lp3490
S':'
asbag57
(g78
g59
NtRp3491
(dp3492
g62
(dp3493
sg71
g3478
sg64
(lp3494
g57
(g58
g59
NtRp3495
(dp3496
g62
(dp3497
g70
I3
ssg71
g3491
sg64
(lp3498
g1831
asbasbasbag57
(g73
g59
NtRp3499
(dp3500
g62
(dp3501
sg71
g2907
sg64
(lp3502
g57
(g78
g59
NtRp3503
(dp3504
g62
(dp3505
g82
g83
ssg71
g3499
sg64
(lp3506
S'SCRIPT_NAME'
p3507
asbag57
(g78
g59
NtRp3508
(dp3509
g62
(dp3510
g89
g90
ssg71
g3499
sg64
(lp3511
S':'
asbag57
(g78
g59
NtRp3512
(dp3513
g62
(dp3514
sg71
g3499
sg64
(lp3515
g57
(g58
g59
NtRp3516
(dp3517
g62
(dp3518
g70
I3
ssg71
g3512
sg64
(lp3519
S''
asbasbasbag57
(g73
g59
NtRp3520
(dp3521
g62
(dp3522
sg71
g2907
sg64
(lp3523
g57
(g78
g59
NtRp3524
(dp3525
g62
(dp3526
g82
g83
ssg71
g3520
sg64
(lp3527
S'SERVER_ADDR'
p3528
asbag57
(g78
g59
NtRp3529
(dp3530
g62
(dp3531
g89
g90
ssg71
g3520
sg64
(lp3532
S':'
asbag57
(g78
g59
NtRp3533
(dp3534
g62
(dp3535
sg71
g3520
sg64
(lp3536
g57
(g58
g59
NtRp3537
(dp3538
g62
(dp3539
g70
I3
ssg71
g3533
sg64
(lp3540
g1874
asbasbasbag57
(g73
g59
NtRp3541
(dp3542
g62
(dp3543
sg71
g2907
sg64
(lp3544
g57
(g78
g59
NtRp3545
(dp3546
g62
(dp3547
g82
g83
ssg71
g3541
sg64
(lp3548
S'SERVER_ADMIN'
p3549
asbag57
(g78
g59
NtRp3550
(dp3551
g62
(dp3552
g89
g90
ssg71
g3541
sg64
(lp3553
S':'
asbag57
(g78
g59
NtRp3554
(dp3555
g62
(dp3556
sg71
g3541
sg64
(lp3557
g57
(g58
g59
NtRp3558
(dp3559
g62
(dp3560
g70
I3
ssg71
g3554
sg64
(lp3561
g1896
asbasbasbag57
(g73
g59
NtRp3562
(dp3563
g62
(dp3564
sg71
g2907
sg64
(lp3565
g57
(g78
g59
NtRp3566
(dp3567
g62
(dp3568
g82
g83
ssg71
g3562
sg64
(lp3569
S'SERVER_NAME'
p3570
asbag57
(g78
g59
NtRp3571
(dp3572
g62
(dp3573
g89
g90
ssg71
g3562
sg64
(lp3574
S':'
asbag57
(g78
g59
NtRp3575
(dp3576
g62
(dp3577
sg71
g3562
sg64
(lp3578
g57
(g58
g59
NtRp3579
(dp3580
g62
(dp3581
g70
I3
ssg71
g3575
sg64
(lp3582
g1918
asbasbasbag57
(g73
g59
NtRp3583
(dp3584
g62
(dp3585
sg71
g2907
sg64
(lp3586
g57
(g78
g59
NtRp3587
(dp3588
g62
(dp3589
g82
g83
ssg71
g3583
sg64
(lp3590
S'SERVER_PORT'
p3591
asbag57
(g78
g59
NtRp3592
(dp3593
g62
(dp3594
g89
g90
ssg71
g3583
sg64
(lp3595
S':'
asbag57
(g78
g59
NtRp3596
(dp3597
g62
(dp3598
sg71
g3583
sg64
(lp3599
g57
(g58
g59
NtRp3600
(dp3601
g62
(dp3602
g70
I3
ssg71
g3596
sg64
(lp3603
g1940
asbasbasbag57
(g73
g59
NtRp3604
(dp3605
g62
(dp3606
sg71
g2907
sg64
(lp3607
g57
(g78
g59
NtRp3608
(dp3609
g62
(dp3610
g82
g83
ssg71
g3604
sg64
(lp3611
S'SERVER_PROTOCOL'
p3612
asbag57
(g78
g59
NtRp3613
(dp3614
g62
(dp3615
g89
g90
ssg71
g3604
sg64
(lp3616
S':'
asbag57
(g78
g59
NtRp3617
(dp3618
g62
(dp3619
sg71
g3604
sg64
(lp3620
g57
(g58
g59
NtRp3621
(dp3622
g62
(dp3623
g70
I3
ssg71
g3617
sg64
(lp3624
g1962
asbasbasbag57
(g73
g59
NtRp3625
(dp3626
g62
(dp3627
sg71
g2907
sg64
(lp3628
g57
(g78
g59
NtRp3629
(dp3630
g62
(dp3631
g82
g83
ssg71
g3625
sg64
(lp3632
S'SERVER_SIGNATURE'
p3633
asbag57
(g78
g59
NtRp3634
(dp3635
g62
(dp3636
g89
g90
ssg71
g3625
sg64
(lp3637
S':'
asbag57
(g78
g59
NtRp3638
(dp3639
g62
(dp3640
sg71
g3625
sg64
(lp3641
g57
(g58
g59
NtRp3642
(dp3643
g62
(dp3644
g70
I3
ssg71
g3638
sg64
(lp3645
S''
asbasbasbag57
(g73
g59
NtRp3646
(dp3647
g62
(dp3648
sg71
g2907
sg64
(lp3649
g57
(g78
g59
NtRp3650
(dp3651
g62
(dp3652
g82
g83
ssg71
g3646
sg64
(lp3653
S'SERVER_SOFTWARE'
p3654
asbag57
(g78
g59
NtRp3655
(dp3656
g62
(dp3657
g89
g90
ssg71
g3646
sg64
(lp3658
S':'
asbag57
(g78
g59
NtRp3659
(dp3660
g62
(dp3661
sg71
g3646
sg64
(lp3662
g57
(g58
g59
NtRp3663
(dp3664
g62
(dp3665
g70
I3
ssg71
g3659
sg64
(lp3666
g2005
asbasbasbag57
(g73
g59
NtRp3667
(dp3668
g62
(dp3669
sg71
g2907
sg64
(lp3670
g57
(g78
g59
NtRp3671
(dp3672
g62
(dp3673
g82
g83
ssg71
g3667
sg64
(lp3674
S'mod_wsgi.application_group'
p3675
asbag57
(g78
g59
NtRp3676
(dp3677
g62
(dp3678
g89
g90
ssg71
g3667
sg64
(lp3679
S':'
asbag57
(g78
g59
NtRp3680
(dp3681
g62
(dp3682
sg71
g3667
sg64
(lp3683
g57
(g58
g59
NtRp3684
(dp3685
g62
(dp3686
g70
I3
ssg71
g3680
sg64
(lp3687
g1435
asbasbasbag57
(g73
g59
NtRp3688
(dp3689
g62
(dp3690
sg71
g2907
sg64
(lp3691
g57
(g78
g59
NtRp3692
(dp3693
g62
(dp3694
g82
g83
ssg71
g3688
sg64
(lp3695
S'mod_wsgi.callable_object'
p3696
asbag57
(g78
g59
NtRp3697
(dp3698
g62
(dp3699
g89
g90
ssg71
g3688
sg64
(lp3700
S':'
asbag57
(g78
g59
NtRp3701
(dp3702
g62
(dp3703
sg71
g3688
sg64
(lp3704
g57
(g58
g59
NtRp3705
(dp3706
g62
(dp3707
g70
I3
ssg71
g3701
sg64
(lp3708
g1457
asbasbasbag57
(g73
g59
NtRp3709
(dp3710
g62
(dp3711
sg71
g2907
sg64
(lp3712
g57
(g78
g59
NtRp3713
(dp3714
g62
(dp3715
g82
g83
ssg71
g3709
sg64
(lp3716
S'mod_wsgi.handler_script'
p3717
asbag57
(g78
g59
NtRp3718
(dp3719
g62
(dp3720
g89
g90
ssg71
g3709
sg64
(lp3721
S':'
asbag57
(g78
g59
NtRp3722
(dp3723
g62
(dp3724
sg71
g3709
sg64
(lp3725
g57
(g58
g59
NtRp3726
(dp3727
g62
(dp3728
g70
I3
ssg71
g3722
sg64
(lp3729
S''
asbasbasbag57
(g73
g59
NtRp3730
(dp3731
g62
(dp3732
sg71
g2907
sg64
(lp3733
g57
(g78
g59
NtRp3734
(dp3735
g62
(dp3736
g82
g83
ssg71
g3730
sg64
(lp3737
S'mod_wsgi.input_chunked'
p3738
asbag57
(g78
g59
NtRp3739
(dp3740
g62
(dp3741
g89
g90
ssg71
g3730
sg64
(lp3742
S':'
asbag57
(g78
g59
NtRp3743
(dp3744
g62
(dp3745
sg71
g3730
sg64
(lp3746
g57
(g58
g59
NtRp3747
(dp3748
g62
(dp3749
g70
I3
ssg71
g3743
sg64
(lp3750
S'0'
asbasbasbag57
(g73
g59
NtRp3751
(dp3752
g62
(dp3753
sg71
g2907
sg64
(lp3754
g57
(g78
g59
NtRp3755
(dp3756
g62
(dp3757
g82
g83
ssg71
g3751
sg64
(lp3758
S'mod_wsgi.listener_host'
p3759
asbag57
(g78
g59
NtRp3760
(dp3761
g62
(dp3762
g89
g90
ssg71
g3751
sg64
(lp3763
S':'
asbag57
(g78
g59
NtRp3764
(dp3765
g62
(dp3766
sg71
g3751
sg64
(lp3767
g57
(g58
g59
NtRp3768
(dp3769
g62
(dp3770
g70
I3
ssg71
g3764
sg64
(lp3771
S''
asbasbasbag57
(g73
g59
NtRp3772
(dp3773
g62
(dp3774
sg71
g2907
sg64
(lp3775
g57
(g78
g59
NtRp3776
(dp3777
g62
(dp3778
g82
g83
ssg71
g3772
sg64
(lp3779
S'mod_wsgi.listener_port'
p3780
asbag57
(g78
g59
NtRp3781
(dp3782
g62
(dp3783
g89
g90
ssg71
g3772
sg64
(lp3784
S':'
asbag57
(g78
g59
NtRp3785
(dp3786
g62
(dp3787
sg71
g3772
sg64
(lp3788
g57
(g58
g59
NtRp3789
(dp3790
g62
(dp3791
g70
I3
ssg71
g3785
sg64
(lp3792
g1542
asbasbasbag57
(g73
g59
NtRp3793
(dp3794
g62
(dp3795
sg71
g2907
sg64
(lp3796
g57
(g78
g59
NtRp3797
(dp3798
g62
(dp3799
g82
g83
ssg71
g3793
sg64
(lp3800
S'mod_wsgi.process_group'
p3801
asbag57
(g78
g59
NtRp3802
(dp3803
g62
(dp3804
g89
g90
ssg71
g3793
sg64
(lp3805
S':'
asbag57
(g78
g59
NtRp3806
(dp3807
g62
(dp3808
sg71
g3793
sg64
(lp3809
g57
(g58
g59
NtRp3810
(dp3811
g62
(dp3812
g70
I3
ssg71
g3806
sg64
(lp3813
g1564
asbasbasbag57
(g73
g59
NtRp3814
(dp3815
g62
(dp3816
sg71
g2907
sg64
(lp3817
g57
(g78
g59
NtRp3818
(dp3819
g62
(dp3820
g82
g83
ssg71
g3814
sg64
(lp3821
S'mod_wsgi.request_handler'
p3822
asbag57
(g78
g59
NtRp3823
(dp3824
g62
(dp3825
g89
g90
ssg71
g3814
sg64
(lp3826
S':'
asbag57
(g78
g59
NtRp3827
(dp3828
g62
(dp3829
sg71
g3814
sg64
(lp3830
g57
(g58
g59
NtRp3831
(dp3832
g62
(dp3833
g70
I3
ssg71
g3827
sg64
(lp3834
g1586
asbasbasbag57
(g73
g59
NtRp3835
(dp3836
g62
(dp3837
sg71
g2907
sg64
(lp3838
g57
(g78
g59
NtRp3839
(dp3840
g62
(dp3841
g82
g83
ssg71
g3835
sg64
(lp3842
S'mod_wsgi.script_reloading'
p3843
asbag57
(g78
g59
NtRp3844
(dp3845
g62
(dp3846
g89
g90
ssg71
g3835
sg64
(lp3847
S':'
asbag57
(g78
g59
NtRp3848
(dp3849
g62
(dp3850
sg71
g3835
sg64
(lp3851
g57
(g58
g59
NtRp3852
(dp3853
g62
(dp3854
g70
I3
ssg71
g3848
sg64
(lp3855
S'1'
asbasbasbag57
(g73
g59
NtRp3856
(dp3857
g62
(dp3858
sg71
g2907
sg64
(lp3859
g57
(g78
g59
NtRp3860
(dp3861
g62
(dp3862
g82
g83
ssg71
g3856
sg64
(lp3863
S'mod_wsgi.version'
p3864
asbag57
(g78
g59
NtRp3865
(dp3866
g62
(dp3867
g89
g90
ssg71
g3856
sg64
(lp3868
S':'
asbag57
(g78
g59
NtRp3869
(dp3870
g62
(dp3871
sg71
g3856
sg64
(lp3872
g57
(g58
g59
NtRp3873
(dp3874
g62
(dp3875
g70
I3
ssg71
g3869
sg64
(lp3876
g57
(g66
g59
NtRp3877
(dp3878
g62
(dp3879
g70
I2
ssg71
Nsg64
(lp3880
g57
(g73
g59
NtRp3881
(dp3882
g62
(dp3883
sg71
g3877
sg64
(lp3884
g57
(g78
g59
NtRp3885
(dp3886
g62
(dp3887
sg71
g3881
sg64
(lp3888
g57
(g58
g59
NtRp3889
(dp3890
g62
(dp3891
g70
I2
ssg71
g3885
sg64
(lp3892
S'3'
asbasbasbag57
(g73
g59
NtRp3893
(dp3894
g62
(dp3895
sg71
g3877
sg64
(lp3896
g57
(g78
g59
NtRp3897
(dp3898
g62
(dp3899
sg71
g3893
sg64
(lp3900
g57
(g58
g59
NtRp3901
(dp3902
g62
(dp3903
g70
I2
ssg71
g3897
sg64
(lp3904
S'3'
asbasbasbasbasbasbasbag57
(g73
g59
NtRp3905
(dp3906
g62
(dp3907
sg71
g2907
sg64
(lp3908
g57
(g78
g59
NtRp3909
(dp3910
g62
(dp3911
g82
g83
ssg71
g3905
sg64
(lp3912
S'wsgi.errors'
p3913
asbag57
(g78
g59
NtRp3914
(dp3915
g62
(dp3916
g89
g90
ssg71
g3905
sg64
(lp3917
S':'
asbag57
(g78
g59
NtRp3918
(dp3919
g62
(dp3920
sg71
g3905
sg64
(lp3921
g57
(g58
g59
NtRp3922
(dp3923
g62
(dp3924
g70
I3
ssg71
g3918
sg64
(lp3925
S'<mod_wsgi.Log object at 0x7fea3617d870>'
p3926
asbasbasbag57
(g73
g59
NtRp3927
(dp3928
g62
(dp3929
sg71
g2907
sg64
(lp3930
g57
(g78
g59
NtRp3931
(dp3932
g62
(dp3933
g82
g83
ssg71
g3927
sg64
(lp3934
S'wsgi.file_wrapper'
p3935
asbag57
(g78
g59
NtRp3936
(dp3937
g62
(dp3938
g89
g90
ssg71
g3927
sg64
(lp3939
S':'
asbag57
(g78
g59
NtRp3940
(dp3941
g62
(dp3942
sg71
g3927
sg64
(lp3943
g57
(g58
g59
NtRp3944
(dp3945
g62
(dp3946
g70
I3
ssg71
g3940
sg64
(lp3947
S'<built-in method file_wrapper of mod_wsgi.Adapter object at 0x7fea3617abe8>'
p3948
asbasbasbag57
(g73
g59
NtRp3949
(dp3950
g62
(dp3951
sg71
g2907
sg64
(lp3952
g57
(g78
g59
NtRp3953
(dp3954
g62
(dp3955
g82
g83
ssg71
g3949
sg64
(lp3956
S'wsgi.input'
p3957
asbag57
(g78
g59
NtRp3958
(dp3959
g62
(dp3960
g89
g90
ssg71
g3949
sg64
(lp3961
S':'
asbag57
(g78
g59
NtRp3962
(dp3963
g62
(dp3964
sg71
g3949
sg64
(lp3965
g57
(g58
g59
NtRp3966
(dp3967
g62
(dp3968
g70
I3
ssg71
g3962
sg64
(lp3969
S'<cStringIO.StringO object at 0x7fea3617c998>'
p3970
asbasbasbag57
(g73
g59
NtRp3971
(dp3972
g62
(dp3973
sg71
g2907
sg64
(lp3974
g57
(g78
g59
NtRp3975
(dp3976
g62
(dp3977
g82
g83
ssg71
g3971
sg64
(lp3978
S'wsgi.multiprocess'
p3979
asbag57
(g78
g59
NtRp3980
(dp3981
g62
(dp3982
g89
g90
ssg71
g3971
sg64
(lp3983
S':'
asbag57
(g78
g59
NtRp3984
(dp3985
g62
(dp3986
sg71
g3971
sg64
(lp3987
g57
(g58
g59
NtRp3988
(dp3989
g62
(dp3990
g70
I3
ssg71
g3984
sg64
(lp3991
g2202
asbasbasbag57
(g73
g59
NtRp3992
(dp3993
g62
(dp3994
sg71
g2907
sg64
(lp3995
g57
(g78
g59
NtRp3996
(dp3997
g62
(dp3998
g82
g83
ssg71
g3992
sg64
(lp3999
S'wsgi.multithread'
p4000
asbag57
(g78
g59
NtRp4001
(dp4002
g62
(dp4003
g89
g90
ssg71
g3992
sg64
(lp4004
S':'
asbag57
(g78
g59
NtRp4005
(dp4006
g62
(dp4007
sg71
g3992
sg64
(lp4008
g57
(g58
g59
NtRp4009
(dp4010
g62
(dp4011
g70
I3
ssg71
g4005
sg64
(lp4012
g100
asbasbasbag57
(g73
g59
NtRp4013
(dp4014
g62
(dp4015
sg71
g2907
sg64
(lp4016
g57
(g78
g59
NtRp4017
(dp4018
g62
(dp4019
g82
g83
ssg71
g4013
sg64
(lp4020
S'wsgi.run_once'
p4021
asbag57
(g78
g59
NtRp4022
(dp4023
g62
(dp4024
g89
g90
ssg71
g4013
sg64
(lp4025
S':'
asbag57
(g78
g59
NtRp4026
(dp4027
g62
(dp4028
sg71
g4013
sg64
(lp4029
g57
(g58
g59
NtRp4030
(dp4031
g62
(dp4032
g70
I3
ssg71
g4026
sg64
(lp4033
g100
asbasbasbag57
(g73
g59
NtRp4034
(dp4035
g62
(dp4036
sg71
g2907
sg64
(lp4037
g57
(g78
g59
NtRp4038
(dp4039
g62
(dp4040
g82
g83
ssg71
g4034
sg64
(lp4041
S'wsgi.url_scheme'
p4042
asbag57
(g78
g59
NtRp4043
(dp4044
g62
(dp4045
g89
g90
ssg71
g4034
sg64
(lp4046
S':'
asbag57
(g78
g59
NtRp4047
(dp4048
g62
(dp4049
sg71
g4034
sg64
(lp4050
g57
(g58
g59
NtRp4051
(dp4052
g62
(dp4053
g70
I3
ssg71
g4047
sg64
(lp4054
g2266
asbasbasbag57
(g73
g59
NtRp4055
(dp4056
g62
(dp4057
sg71
g2907
sg64
(lp4058
g57
(g78
g59
NtRp4059
(dp4060
g62
(dp4061
g82
g83
ssg71
g4055
sg64
(lp4062
S'wsgi.version'
p4063
asbag57
(g78
g59
NtRp4064
(dp4065
g62
(dp4066
g89
g90
ssg71
g4055
sg64
(lp4067
S':'
asbag57
(g78
g59
NtRp4068
(dp4069
g62
(dp4070
sg71
g4055
sg64
(lp4071
g57
(g58
g59
NtRp4072
(dp4073
g62
(dp4074
g70
I3
ssg71
g4068
sg64
(lp4075
S'1'
asbasbasbasbasbasbasbasbasbasbasbasbasbsS'frames'
p4076
(lp4077
(dp4078
S'file'
p4079
S'/home/lyonwj/webapps/web2py/web2py/gluon/restricted.py'
p4080
sS'dump'
p4081
(dp4082
S'environment'
p4083
S"{'A': <class 'gluon.html.A'>, 'Auth': <class 'gluon.tools.Auth'>, 'B': <class 'gluon.html.B'>, 'BEAUTIFY': <class 'gluon.html.BEAUTIFY'>, 'BODY': <class 'gluon.html.BODY'>, 'BR': <class 'gluon.html.BR'>, 'BUTTON': <class 'gluon.html.BUTTON'>, 'CAT': <class 'gluon.html.CAT'>, 'CENTER': <class 'gluon.html.CENTER'>, 'CLEANUP': <class 'gluon.validators.CLEANUP'>, ...}"
p4084
sS'ccode'
p4085
S'<code object <module> at 0x7fea3618c430, file "/...ions/NewzTrader/controllers/default.py", line 11>'
p4086
ssS'lnum'
p4087
I205
sS'lines'
p4088
(dp4089
I200
S'    try:'
p4090
sI201
S'        if type(code) == types.CodeType:'
p4091
sI202
S'            ccode = code'
p4092
sI203
S'        else:'
p4093
sI204
S'            ccode = compile2(code,layer)'
p4094
sI205
S'        exec ccode in environment'
p4095
sI206
S'    except HTTP:'
p4096
sI207
S'        raise'
p4097
sI208
S'    except RestrictedError:'
p4098
sI209
S'        # do not encapsulate (obfuscate) the original RestrictedError'
p4099
ssS'call'
p4100
S"(code='# -*- coding: utf-8 -*-\\n# this file is released ...=crud())\\n\\nresponse._vars=response._caller(index)\\n', environment={'A': <class 'gluon.html.A'>, 'Auth': <class 'gluon.tools.Auth'>, 'B': <class 'gluon.html.B'>, 'BEAUTIFY': <class 'gluon.html.BEAUTIFY'>, 'BODY': <class 'gluon.html.BODY'>, 'BR': <class 'gluon.html.BR'>, 'BUTTON': <class 'gluon.html.BUTTON'>, 'CAT': <class 'gluon.html.CAT'>, 'CENTER': <class 'gluon.html.CENTER'>, 'CLEANUP': <class 'gluon.validators.CLEANUP'>, ...}, layer='/home/lyonwj/webapps/web2py/web2py/applications/NewzTrader/controllers/default.py')"
p4101
sS'func'
p4102
S'restricted'
p4103
sa(dp4104
g4079
S'/home/lyonwj/webapps/web2py/web2py/applications/NewzTrader/controllers/default.py'
p4105
sg4081
(dp4106
sg4087
I135
sg4088
(dp4107
I128
S'    but URLs must be signed, i.e. linked with'
p4108
sI129
S"      A('table',_href=URL('data/tables',user_signature=True))"
p4109
sI130
S'    or with the signed load operator'
p4110
sI131
S"      LOAD('default','data.load',args='tables',ajax=True,user_signature=True)"
p4111
sI132
S'    """'
p4112
sI133
S'    return dict(form=crud())'
p4113
sI124
S'    http://..../[app]/default/data/update/[table]/[id]'
p4114
sI125
S'    http://..../[app]/default/data/delete/[table]/[id]'
p4115
sI126
S'    http://..../[app]/default/data/select/[table]'
p4116
sI127
S'    http://..../[app]/default/data/search/[table]'
p4117
ssg4100
S'()'
p4118
sg4102
S'<module>'
p4119
sa(dp4120
g4079
S'/home/lyonwj/webapps/web2py/web2py/gluon/globals.py'
p4121
sg4081
(dp4122
S'self'
p4123
S'undefined'
p4124
sS'f'
S'<function index>'
p4125
ssg4087
I173
sg4088
(dp4126
I168
S'        self.menu = []             # used by the default view layout'
p4127
sI169
S'        self.files = []            # used by web2py_ajax.html'
p4128
sI170
S'        self.generic_patterns = [] # patterns to allow generic views'
p4129
sI171
S"        self.delimiters = ('{{','}}')"
p4130
sI172
S'        self._vars = None'
p4131
sI173
S'        self._caller = lambda f: f()'
p4132
sI174
S'        self._view_environment = None'
p4133
sI175
S'        self._custom_commit = None'
p4134
sI176
S'        self._custom_rollback = None'
p4135
sI177
S''
ssg4100
S'(f=<function index>)'
p4136
sg4102
S'<lambda>'
p4137
sa(dp4138
g4079
S'/home/lyonwj/webapps/web2py/web2py/applications/NewzTrader/controllers/default.py'
p4139
sg4081
(dp4140
S'global get_classifier'
p4141
S'<function get_classifier>'
p4142
sS'nb_classifer'
p4143
g4124
ssg4087
I28
sg4088
(dp4144
I32
S''
sI23
S'def index():'
p4145
sI24
S''
sI25
S'    #response.flash = "Welcome to web2py!"'
p4146
sI26
S'    todaysNews = get_headlines(date.today())'
p4147
sI27
S'    newsCats = []'
p4148
sI28
S'    nb_classifer = get_classifier()'
p4149
sI29
S''
sI30
S'    for headline in todaysNews:'
p4150
sI31
S'        newsCats.append(nb_classifier.classify(bag_of_words(headline)))'
p4151
ssg4100
S'()'
p4152
sg4102
g2381
sa(dp4153
g4079
S'/home/lyonwj/webapps/web2py/web2py/applications/NewzTrader/controllers/default.py'
p4154
sg4081
(dp4155
S'pkl_file'
p4156
S"<open file '/home/lyonwj/webapps/web2py/web2py/a...ns/NewzTrader/private/classifier.pkl', mode 'rb'>"
p4157
sS'pickle'
p4158
g4124
sS'classifier'
p4159
g4124
ssg4087
I39
sg4088
(dp4160
I34
S''
sI35
S'def get_classifier():'
p4161
sI36
S''
sI37
S"    fp = os.path.join(request.folder,'private','classifier.pkl')"
p4162
sI38
S"    pkl_file = open(fp, 'rb')"
p4163
sI39
S'    classifier = pickle.load(pkl_file)'
p4164
sI40
S'    pkl_file.close()'
p4165
sI41
S'    return classifier'
p4166
sI42
S''
sI43
S'def daterange(start_date, end_date):'
p4167
ssg4100
S'()'
p4168
sg4102
S'get_classifier'
p4169
sasS'pyver'
p4170
S'Python 2.7.3: /usr/bin/python'
p4171
sS'session'
p4172
g57
(g58
g59
NtRp4173
(dp4174
g62
(dp4175
sg64
(lp4176
g57
(g66
g59
NtRp4177
(dp4178
g62
(dp4179
g70
I5
ssg71
Nsg64
(lp4180
sbasbsS'etype'
p4181
S"<type 'exceptions.NameError'>"
p4182
sS'date'
p4183
S'Sat Nov 17 03:16:56 2012'
p4184
sS'response'
p4185
g57
(g58
g59
NtRp4186
(dp4187
g62
(dp4188
sg64
(lp4189
g57
(g66
g59
NtRp4190
(dp4191
g62
(dp4192
g70
I5
ssg71
Nsg64
(lp4193
g57
(g73
g59
NtRp4194
(dp4195
g62
(dp4196
sg71
g4190
sg64
(lp4197
g57
(g78
g59
NtRp4198
(dp4199
g62
(dp4200
g82
g83
ssg71
g4194
sg64
(lp4201
g155
asbag57
(g78
g59
NtRp4202
(dp4203
g62
(dp4204
g89
g90
ssg71
g4194
sg64
(lp4205
S':'
asbag57
(g78
g59
NtRp4206
(dp4207
g62
(dp4208
sg71
g4194
sg64
(lp4209
g57
(g58
g59
NtRp4210
(dp4211
g62
(dp4212
g70
I5
ssg71
g4206
sg64
(lp4213
S'<cStringIO.StringO object at 0x7fea3617c688>'
p4214
asbasbasbag57
(g73
g59
NtRp4215
(dp4216
g62
(dp4217
sg71
g4190
sg64
(lp4218
g57
(g78
g59
NtRp4219
(dp4220
g62
(dp4221
g82
g83
ssg71
g4215
sg64
(lp4222
g221
asbag57
(g78
g59
NtRp4223
(dp4224
g62
(dp4225
g89
g90
ssg71
g4215
sg64
(lp4226
S':'
asbag57
(g78
g59
NtRp4227
(dp4228
g62
(dp4229
sg71
g4215
sg64
(lp4230
g57
(g58
g59
NtRp4231
(dp4232
g62
(dp4233
g70
I5
ssg71
g4227
sg64
(lp4234
g57
(g66
g59
NtRp4235
(dp4236
g62
(dp4237
g70
I4
ssg71
Nsg64
(lp4238
g57
(g73
g59
NtRp4239
(dp4240
g62
(dp4241
sg71
g4235
sg64
(lp4242
g57
(g78
g59
NtRp4243
(dp4244
g62
(dp4245
g82
g83
ssg71
g4239
sg64
(lp4246
S'session_id_newztrader'
p4247
asbag57
(g78
g59
NtRp4248
(dp4249
g62
(dp4250
g89
g90
ssg71
g4239
sg64
(lp4251
S':'
asbag57
(g78
g59
NtRp4252
(dp4253
g62
(dp4254
sg71
g4239
sg64
(lp4255
g57
(g58
g59
NtRp4256
(dp4257
g62
(dp4258
g70
I4
ssg71
g4252
sg64
(lp4259
g57
(g66
g59
NtRp4260
(dp4261
g62
(dp4262
g70
I3
ssg71
Nsg64
(lp4263
g57
(g73
g59
NtRp4264
(dp4265
g62
(dp4266
sg71
g4260
sg64
(lp4267
g57
(g78
g59
NtRp4268
(dp4269
g62
(dp4270
g82
g83
ssg71
g4264
sg64
(lp4271
g271
asbag57
(g78
g59
NtRp4272
(dp4273
g62
(dp4274
g89
g90
ssg71
g4264
sg64
(lp4275
S':'
asbag57
(g78
g59
NtRp4276
(dp4277
g62
(dp4278
sg71
g4264
sg64
(lp4279
g57
(g58
g59
NtRp4280
(dp4281
g62
(dp4282
g70
I3
ssg71
g4276
sg64
(lp4283
S''
asbasbasbag57
(g73
g59
NtRp4284
(dp4285
g62
(dp4286
sg71
g4260
sg64
(lp4287
g57
(g78
g59
NtRp4288
(dp4289
g62
(dp4290
g82
g83
ssg71
g4284
sg64
(lp4291
g292
asbag57
(g78
g59
NtRp4292
(dp4293
g62
(dp4294
g89
g90
ssg71
g4284
sg64
(lp4295
S':'
asbag57
(g78
g59
NtRp4296
(dp4297
g62
(dp4298
sg71
g4284
sg64
(lp4299
g57
(g58
g59
NtRp4300
(dp4301
g62
(dp4302
g70
I3
ssg71
g4296
sg64
(lp4303
S''
asbasbasbag57
(g73
g59
NtRp4304
(dp4305
g62
(dp4306
sg71
g4260
sg64
(lp4307
g57
(g78
g59
NtRp4308
(dp4309
g62
(dp4310
g82
g83
ssg71
g4304
sg64
(lp4311
g313
asbag57
(g78
g59
NtRp4312
(dp4313
g62
(dp4314
g89
g90
ssg71
g4304
sg64
(lp4315
S':'
asbag57
(g78
g59
NtRp4316
(dp4317
g62
(dp4318
sg71
g4304
sg64
(lp4319
g57
(g58
g59
NtRp4320
(dp4321
g62
(dp4322
g70
I3
ssg71
g4316
sg64
(lp4323
S''
asbasbasbag57
(g73
g59
NtRp4324
(dp4325
g62
(dp4326
sg71
g4260
sg64
(lp4327
g57
(g78
g59
NtRp4328
(dp4329
g62
(dp4330
g82
g83
ssg71
g4324
sg64
(lp4331
g334
asbag57
(g78
g59
NtRp4332
(dp4333
g62
(dp4334
g89
g90
ssg71
g4324
sg64
(lp4335
S':'
asbag57
(g78
g59
NtRp4336
(dp4337
g62
(dp4338
sg71
g4324
sg64
(lp4339
g57
(g58
g59
NtRp4340
(dp4341
g62
(dp4342
g70
I3
ssg71
g4336
sg64
(lp4343
S''
asbasbasbag57
(g73
g59
NtRp4344
(dp4345
g62
(dp4346
sg71
g4260
sg64
(lp4347
g57
(g78
g59
NtRp4348
(dp4349
g62
(dp4350
g82
g83
ssg71
g4344
sg64
(lp4351
g355
asbag57
(g78
g59
NtRp4352
(dp4353
g62
(dp4354
g89
g90
ssg71
g4344
sg64
(lp4355
S':'
asbag57
(g78
g59
NtRp4356
(dp4357
g62
(dp4358
sg71
g4344
sg64
(lp4359
g57
(g58
g59
NtRp4360
(dp4361
g62
(dp4362
g70
I3
ssg71
g4356
sg64
(lp4363
S''
asbasbasbag57
(g73
g59
NtRp4364
(dp4365
g62
(dp4366
sg71
g4260
sg64
(lp4367
g57
(g78
g59
NtRp4368
(dp4369
g62
(dp4370
g82
g83
ssg71
g4364
sg64
(lp4371
g376
asbag57
(g78
g59
NtRp4372
(dp4373
g62
(dp4374
g89
g90
ssg71
g4364
sg64
(lp4375
S':'
asbag57
(g78
g59
NtRp4376
(dp4377
g62
(dp4378
sg71
g4364
sg64
(lp4379
g57
(g58
g59
NtRp4380
(dp4381
g62
(dp4382
g70
I3
ssg71
g4376
sg64
(lp4383
S'/'
asbasbasbag57
(g73
g59
NtRp4384
(dp4385
g62
(dp4386
sg71
g4260
sg64
(lp4387
g57
(g78
g59
NtRp4388
(dp4389
g62
(dp4390
g82
g83
ssg71
g4384
sg64
(lp4391
g397
asbag57
(g78
g59
NtRp4392
(dp4393
g62
(dp4394
g89
g90
ssg71
g4384
sg64
(lp4395
S':'
asbag57
(g78
g59
NtRp4396
(dp4397
g62
(dp4398
sg71
g4384
sg64
(lp4399
g57
(g58
g59
NtRp4400
(dp4401
g62
(dp4402
g70
I3
ssg71
g4396
sg64
(lp4403
S''
asbasbasbag57
(g73
g59
NtRp4404
(dp4405
g62
(dp4406
sg71
g4260
sg64
(lp4407
g57
(g78
g59
NtRp4408
(dp4409
g62
(dp4410
g82
g83
ssg71
g4404
sg64
(lp4411
g418
asbag57
(g78
g59
NtRp4412
(dp4413
g62
(dp4414
g89
g90
ssg71
g4404
sg64
(lp4415
S':'
asbag57
(g78
g59
NtRp4416
(dp4417
g62
(dp4418
sg71
g4404
sg64
(lp4419
g57
(g58
g59
NtRp4420
(dp4421
g62
(dp4422
g70
I3
ssg71
g4416
sg64
(lp4423
S''
asbasbasbasbasbasbasbasbasbasbasbag57
(g73
g59
NtRp4424
(dp4425
g62
(dp4426
sg71
g4190
sg64
(lp4427
g57
(g78
g59
NtRp4428
(dp4429
g62
(dp4430
g82
g83
ssg71
g4424
sg64
(lp4431
S'delimiters'
p4432
asbag57
(g78
g59
NtRp4433
(dp4434
g62
(dp4435
g89
g90
ssg71
g4424
sg64
(lp4436
S':'
asbag57
(g78
g59
NtRp4437
(dp4438
g62
(dp4439
sg71
g4424
sg64
(lp4440
g57
(g58
g59
NtRp4441
(dp4442
g62
(dp4443
g70
I5
ssg71
g4437
sg64
(lp4444
g57
(g66
g59
NtRp4445
(dp4446
g62
(dp4447
g70
I4
ssg71
Nsg64
(lp4448
g57
(g73
g59
NtRp4449
(dp4450
g62
(dp4451
sg71
g4445
sg64
(lp4452
g57
(g78
g59
NtRp4453
(dp4454
g62
(dp4455
sg71
g4449
sg64
(lp4456
g57
(g58
g59
NtRp4457
(dp4458
g62
(dp4459
g70
I4
ssg71
g4453
sg64
(lp4460
S'{{'
p4461
asbasbasbag57
(g73
g59
NtRp4462
(dp4463
g62
(dp4464
sg71
g4445
sg64
(lp4465
g57
(g78
g59
NtRp4466
(dp4467
g62
(dp4468
sg71
g4462
sg64
(lp4469
g57
(g58
g59
NtRp4470
(dp4471
g62
(dp4472
g70
I4
ssg71
g4466
sg64
(lp4473
S'}}'
p4474
asbasbasbasbasbasbasbag57
(g73
g59
NtRp4475
(dp4476
g62
(dp4477
sg71
g4190
sg64
(lp4478
g57
(g78
g59
NtRp4479
(dp4480
g62
(dp4481
g82
g83
ssg71
g4475
sg64
(lp4482
S'files'
p4483
asbag57
(g78
g59
NtRp4484
(dp4485
g62
(dp4486
g89
g90
ssg71
g4475
sg64
(lp4487
S':'
asbag57
(g78
g59
NtRp4488
(dp4489
g62
(dp4490
sg71
g4475
sg64
(lp4491
g57
(g58
g59
NtRp4492
(dp4493
g62
(dp4494
g70
I5
ssg71
g4488
sg64
(lp4495
g57
(g66
g59
NtRp4496
(dp4497
g62
(dp4498
g70
I4
ssg71
Nsg64
(lp4499
sbasbasbasbag57
(g73
g59
NtRp4500
(dp4501
g62
(dp4502
sg71
g4190
sg64
(lp4503
g57
(g78
g59
NtRp4504
(dp4505
g62
(dp4506
g82
g83
ssg71
g4500
sg64
(lp4507
S'flash'
p4508
asbag57
(g78
g59
NtRp4509
(dp4510
g62
(dp4511
g89
g90
ssg71
g4500
sg64
(lp4512
S':'
asbag57
(g78
g59
NtRp4513
(dp4514
g62
(dp4515
sg71
g4500
sg64
(lp4516
g57
(g58
g59
NtRp4517
(dp4518
g62
(dp4519
g70
I5
ssg71
g4513
sg64
(lp4520
S''
asbasbasbag57
(g73
g59
NtRp4521
(dp4522
g62
(dp4523
sg71
g4190
sg64
(lp4524
g57
(g78
g59
NtRp4525
(dp4526
g62
(dp4527
g82
g83
ssg71
g4521
sg64
(lp4528
S'generic_patterns'
p4529
asbag57
(g78
g59
NtRp4530
(dp4531
g62
(dp4532
g89
g90
ssg71
g4521
sg64
(lp4533
S':'
asbag57
(g78
g59
NtRp4534
(dp4535
g62
(dp4536
sg71
g4521
sg64
(lp4537
g57
(g58
g59
NtRp4538
(dp4539
g62
(dp4540
g70
I5
ssg71
g4534
sg64
(lp4541
g57
(g66
g59
NtRp4542
(dp4543
g62
(dp4544
g70
I4
ssg71
Nsg64
(lp4545
g57
(g73
g59
NtRp4546
(dp4547
g62
(dp4548
sg71
g4542
sg64
(lp4549
g57
(g78
g59
NtRp4550
(dp4551
g62
(dp4552
sg71
g4546
sg64
(lp4553
g57
(g58
g59
NtRp4554
(dp4555
g62
(dp4556
g70
I4
ssg71
g4550
sg64
(lp4557
S'*'
asbasbasbasbasbasbasbag57
(g73
g59
NtRp4558
(dp4559
g62
(dp4560
sg71
g4190
sg64
(lp4561
g57
(g78
g59
NtRp4562
(dp4563
g62
(dp4564
g82
g83
ssg71
g4558
sg64
(lp4565
S'headers'
p4566
asbag57
(g78
g59
NtRp4567
(dp4568
g62
(dp4569
g89
g90
ssg71
g4558
sg64
(lp4570
S':'
asbag57
(g78
g59
NtRp4571
(dp4572
g62
(dp4573
sg71
g4558
sg64
(lp4574
g57
(g58
g59
NtRp4575
(dp4576
g62
(dp4577
g70
I5
ssg71
g4571
sg64
(lp4578
g57
(g66
g59
NtRp4579
(dp4580
g62
(dp4581
g70
I4
ssg71
Nsg64
(lp4582
g57
(g73
g59
NtRp4583
(dp4584
g62
(dp4585
sg71
g4579
sg64
(lp4586
g57
(g78
g59
NtRp4587
(dp4588
g62
(dp4589
g82
g83
ssg71
g4583
sg64
(lp4590
S'Cache-Control'
p4591
asbag57
(g78
g59
NtRp4592
(dp4593
g62
(dp4594
g89
g90
ssg71
g4583
sg64
(lp4595
S':'
asbag57
(g78
g59
NtRp4596
(dp4597
g62
(dp4598
sg71
g4583
sg64
(lp4599
g57
(g58
g59
NtRp4600
(dp4601
g62
(dp4602
g70
I4
ssg71
g4596
sg64
(lp4603
S'no-store, no-cache, must-revalidate, post-check=0, pre-check=0'
p4604
asbasbasbag57
(g73
g59
NtRp4605
(dp4606
g62
(dp4607
sg71
g4579
sg64
(lp4608
g57
(g78
g59
NtRp4609
(dp4610
g62
(dp4611
g82
g83
ssg71
g4605
sg64
(lp4612
S'Content-Type'
p4613
asbag57
(g78
g59
NtRp4614
(dp4615
g62
(dp4616
g89
g90
ssg71
g4605
sg64
(lp4617
S':'
asbag57
(g78
g59
NtRp4618
(dp4619
g62
(dp4620
sg71
g4605
sg64
(lp4621
g57
(g58
g59
NtRp4622
(dp4623
g62
(dp4624
g70
I4
ssg71
g4618
sg64
(lp4625
S'text/html; charset=utf-8'
p4626
asbasbasbag57
(g73
g59
NtRp4627
(dp4628
g62
(dp4629
sg71
g4579
sg64
(lp4630
g57
(g78
g59
NtRp4631
(dp4632
g62
(dp4633
g82
g83
ssg71
g4627
sg64
(lp4634
S'Expires'
p4635
asbag57
(g78
g59
NtRp4636
(dp4637
g62
(dp4638
g89
g90
ssg71
g4627
sg64
(lp4639
S':'
asbag57
(g78
g59
NtRp4640
(dp4641
g62
(dp4642
sg71
g4627
sg64
(lp4643
g57
(g58
g59
NtRp4644
(dp4645
g62
(dp4646
g70
I4
ssg71
g4640
sg64
(lp4647
S'Sat, 17 Nov 2012 03:16:56 GMT'
p4648
asbasbasbag57
(g73
g59
NtRp4649
(dp4650
g62
(dp4651
sg71
g4579
sg64
(lp4652
g57
(g78
g59
NtRp4653
(dp4654
g62
(dp4655
g82
g83
ssg71
g4649
sg64
(lp4656
S'Pragma'
p4657
asbag57
(g78
g59
NtRp4658
(dp4659
g62
(dp4660
g89
g90
ssg71
g4649
sg64
(lp4661
S':'
asbag57
(g78
g59
NtRp4662
(dp4663
g62
(dp4664
sg71
g4649
sg64
(lp4665
g57
(g58
g59
NtRp4666
(dp4667
g62
(dp4668
g70
I4
ssg71
g4662
sg64
(lp4669
S'no-cache'
p4670
asbasbasbag57
(g73
g59
NtRp4671
(dp4672
g62
(dp4673
sg71
g4579
sg64
(lp4674
g57
(g78
g59
NtRp4675
(dp4676
g62
(dp4677
g82
g83
ssg71
g4671
sg64
(lp4678
S'X-Powered-By'
p4679
asbag57
(g78
g59
NtRp4680
(dp4681
g62
(dp4682
g89
g90
ssg71
g4671
sg64
(lp4683
S':'
asbag57
(g78
g59
NtRp4684
(dp4685
g62
(dp4686
sg71
g4671
sg64
(lp4687
g57
(g58
g59
NtRp4688
(dp4689
g62
(dp4690
g70
I4
ssg71
g4684
sg64
(lp4691
S'web2py'
p4692
asbasbasbasbasbasbasbag57
(g73
g59
NtRp4693
(dp4694
g62
(dp4695
sg71
g4190
sg64
(lp4696
g57
(g78
g59
NtRp4697
(dp4698
g62
(dp4699
g82
g83
ssg71
g4693
sg64
(lp4700
S'menu'
p4701
asbag57
(g78
g59
NtRp4702
(dp4703
g62
(dp4704
g89
g90
ssg71
g4693
sg64
(lp4705
S':'
asbag57
(g78
g59
NtRp4706
(dp4707
g62
(dp4708
sg71
g4693
sg64
(lp4709
g57
(g58
g59
NtRp4710
(dp4711
g62
(dp4712
g70
I5
ssg71
g4706
sg64
(lp4713
g57
(g66
g59
NtRp4714
(dp4715
g62
(dp4716
g70
I4
ssg71
Nsg64
(lp4717
g57
(g73
g59
NtRp4718
(dp4719
g62
(dp4720
sg71
g4714
sg64
(lp4721
g57
(g78
g59
NtRp4722
(dp4723
g62
(dp4724
sg71
g4718
sg64
(lp4725
g57
(g58
g59
NtRp4726
(dp4727
g62
(dp4728
g70
I4
ssg71
g4722
sg64
(lp4729
g57
(g66
g59
NtRp4730
(dp4731
g62
(dp4732
g70
I3
ssg71
Nsg64
(lp4733
g57
(g73
g59
NtRp4734
(dp4735
g62
(dp4736
sg71
g4730
sg64
(lp4737
g57
(g78
g59
NtRp4738
(dp4739
g62
(dp4740
sg71
g4734
sg64
(lp4741
g57
(g58
g59
NtRp4742
(dp4743
g62
(dp4744
g70
I3
ssg71
g4738
sg64
(lp4745
cgluon.languages
lazyT_unpickle
p4746
(S't\x04\x00\x00\x00Home'
tRp4747
asbasbasbag57
(g73
g59
NtRp4748
(dp4749
g62
(dp4750
sg71
g4730
sg64
(lp4751
g57
(g78
g59
NtRp4752
(dp4753
g62
(dp4754
sg71
g4748
sg64
(lp4755
g57
(g58
g59
NtRp4756
(dp4757
g62
(dp4758
g70
I3
ssg71
g4752
sg64
(lp4759
g100
asbasbasbag57
(g73
g59
NtRp4760
(dp4761
g62
(dp4762
sg71
g4730
sg64
(lp4763
g57
(g78
g59
NtRp4764
(dp4765
g62
(dp4766
sg71
g4760
sg64
(lp4767
g57
(g58
g59
NtRp4768
(dp4769
g62
(dp4770
g70
I3
ssg71
g4764
sg64
(lp4771
S'/NewzTrader/default/index'
p4772
asbasbasbag57
(g73
g59
NtRp4773
(dp4774
g62
(dp4775
sg71
g4730
sg64
(lp4776
g57
(g78
g59
NtRp4777
(dp4778
g62
(dp4779
sg71
g4773
sg64
(lp4780
g57
(g58
g59
NtRp4781
(dp4782
g62
(dp4783
g70
I3
ssg71
g4777
sg64
(lp4784
g57
(g66
g59
NtRp4785
(dp4786
g62
(dp4787
g70
I2
ssg71
Nsg64
(lp4788
sbasbasbasbasbasbasbasbag57
(g73
g59
NtRp4789
(dp4790
g62
(dp4791
sg71
g4714
sg64
(lp4792
g57
(g78
g59
NtRp4793
(dp4794
g62
(dp4795
sg71
g4789
sg64
(lp4796
g57
(g58
g59
NtRp4797
(dp4798
g62
(dp4799
g70
I4
ssg71
g4793
sg64
(lp4800
g57
(g66
g59
NtRp4801
(dp4802
g62
(dp4803
g70
I3
ssg71
Nsg64
(lp4804
g57
(g73
g59
NtRp4805
(dp4806
g62
(dp4807
sg71
g4801
sg64
(lp4808
g57
(g78
g59
NtRp4809
(dp4810
g62
(dp4811
sg71
g4805
sg64
(lp4812
g57
(g58
g59
NtRp4813
(dp4814
g62
(dp4815
g70
I3
ssg71
g4809
sg64
(lp4816
g57
(cgluon.html
SPAN
p4817
g59
NtRp4818
(dp4819
g62
(dp4820
g82
S'color:yellow'
p4821
ssg71
Nsg64
(lp4822
g4692
asbasbasbasbag57
(g73
g59
NtRp4823
(dp4824
g62
(dp4825
sg71
g4801
sg64
(lp4826
g57
(g78
g59
NtRp4827
(dp4828
g62
(dp4829
sg71
g4823
sg64
(lp4830
g57
(g58
g59
NtRp4831
(dp4832
g62
(dp4833
g70
I3
ssg71
g4827
sg64
(lp4834
g100
asbasbasbag57
(g73
g59
NtRp4835
(dp4836
g62
(dp4837
sg71
g4801
sg64
(lp4838
g57
(g78
g59
NtRp4839
(dp4840
g62
(dp4841
sg71
g4835
sg64
(lp4842
g57
(g58
g59
NtRp4843
(dp4844
g62
(dp4845
g70
I3
ssg71
g4839
sg64
(lp4846
S'None'
p4847
asbasbasbag57
(g73
g59
NtRp4848
(dp4849
g62
(dp4850
sg71
g4801
sg64
(lp4851
g57
(g78
g59
NtRp4852
(dp4853
g62
(dp4854
sg71
g4848
sg64
(lp4855
g57
(g58
g59
NtRp4856
(dp4857
g62
(dp4858
g70
I3
ssg71
g4852
sg64
(lp4859
g57
(g66
g59
NtRp4860
(dp4861
g62
(dp4862
g70
I2
ssg71
Nsg64
(lp4863
g57
(g73
g59
NtRp4864
(dp4865
g62
(dp4866
sg71
g4860
sg64
(lp4867
g57
(g78
g59
NtRp4868
(dp4869
g62
(dp4870
sg71
g4864
sg64
(lp4871
g57
(g58
g59
NtRp4872
(dp4873
g62
(dp4874
g70
I2
ssg71
g4868
sg64
(lp4875
g57
(g66
g59
NtRp4876
(dp4877
g62
(dp4878
g70
I1
ssg71
Nsg64
(lp4879
g57
(g73
g59
NtRp4880
(dp4881
g62
(dp4882
sg71
g4876
sg64
(lp4883
g57
(g78
g59
NtRp4884
(dp4885
g62
(dp4886
sg71
g4880
sg64
(lp4887
g57
(g58
g59
NtRp4888
(dp4889
g62
(dp4890
g70
I1
ssg71
g4884
sg64
(lp4891
g4746
(S's\x08\x00\x00\x00My Sites'
tRp4892
asbasbasbag57
(g73
g59
NtRp4893
(dp4894
g62
(dp4895
sg71
g4876
sg64
(lp4896
g57
(g78
g59
NtRp4897
(dp4898
g62
(dp4899
sg71
g4893
sg64
(lp4900
g57
(g58
g59
NtRp4901
(dp4902
g62
(dp4903
g70
I1
ssg71
g4897
sg64
(lp4904
I00
asbasbasbag57
(g73
g59
NtRp4905
(dp4906
g62
(dp4907
sg71
g4876
sg64
(lp4908
g57
(g78
g59
NtRp4909
(dp4910
g62
(dp4911
sg71
g4905
sg64
(lp4912
g57
(g58
g59
NtRp4913
(dp4914
g62
(dp4915
g70
I1
ssg71
g4909
sg64
(lp4916
S'/admin/default/site'
p4917
asbasbasbasbasbasbasbag57
(g73
g59
NtRp4918
(dp4919
g62
(dp4920
sg71
g4860
sg64
(lp4921
g57
(g78
g59
NtRp4922
(dp4923
g62
(dp4924
sg71
g4918
sg64
(lp4925
g57
(g58
g59
NtRp4926
(dp4927
g62
(dp4928
g70
I2
ssg71
g4922
sg64
(lp4929
g57
(g66
g59
NtRp4930
(dp4931
g62
(dp4932
g70
I1
ssg71
Nsg64
(lp4933
g57
(g73
g59
NtRp4934
(dp4935
g62
(dp4936
sg71
g4930
sg64
(lp4937
g57
(g78
g59
NtRp4938
(dp4939
g62
(dp4940
sg71
g4934
sg64
(lp4941
g57
(g58
g59
NtRp4942
(dp4943
g62
(dp4944
g70
I1
ssg71
g4938
sg64
(lp4945
g4746
(S's\x08\x00\x00\x00This App'
tRp4946
asbasbasbag57
(g73
g59
NtRp4947
(dp4948
g62
(dp4949
sg71
g4930
sg64
(lp4950
g57
(g78
g59
NtRp4951
(dp4952
g62
(dp4953
sg71
g4947
sg64
(lp4954
g57
(g58
g59
NtRp4955
(dp4956
g62
(dp4957
g70
I1
ssg71
g4951
sg64
(lp4958
I00
asbasbasbag57
(g73
g59
NtRp4959
(dp4960
g62
(dp4961
sg71
g4930
sg64
(lp4962
g57
(g78
g59
NtRp4963
(dp4964
g62
(dp4965
sg71
g4959
sg64
(lp4966
g57
(g58
g59
NtRp4967
(dp4968
g62
(dp4969
g70
I1
ssg71
g4963
sg64
(lp4970
S'/admin/default/design/NewzTrader'
p4971
asbasbasbag57
(g73
g59
NtRp4972
(dp4973
g62
(dp4974
sg71
g4930
sg64
(lp4975
g57
(g78
g59
NtRp4976
(dp4977
g62
(dp4978
sg71
g4972
sg64
(lp4979
g57
(g58
g59
NtRp4980
(dp4981
g62
(dp4982
g70
I1
ssg71
g4976
sg64
(lp4983
(lp4984
(g4746
(S't\n\x00\x00\x00Controller'
tRp4985
I00
S'/admin/default/edit/NewzTrader/controllers/default.py'
tp4986
a(g4746
(S't\x04\x00\x00\x00View'
tRp4987
I00
S'/admin/default/edit/NewzTrader/views/default/index.html'
tp4988
a(g4746
(S't\x06\x00\x00\x00Layout'
tRp4989
I00
S'/admin/default/edit/NewzTrader/views/layout.html'
tp4990
a(g4746
(S't\n\x00\x00\x00Stylesheet'
tRp4991
I00
S'/admin/default/edit/NewzTrader/static/css/web2py.css'
tp4992
a(g4746
(S's\x08\x00\x00\x00DB Model'
tRp4993
I00
S'/admin/default/edit/NewzTrader/models/db.py'
tp4994
a(g4746
(S's\n\x00\x00\x00Menu Model'
tRp4995
I00
S'/admin/default/edit/NewzTrader/models/menu.py'
tp4996
a(g4746
(S't\x08\x00\x00\x00Database'
tRp4997
I00
S'/NewzTrader/appadmin/index'
tp4998
a(g4746
(S't\x06\x00\x00\x00Errors'
tRp4999
I00
S'/admin/default/errors/NewzTrader'
tp5000
a(g4746
(S't\x05\x00\x00\x00About'
tRp5001
I00
S'/admin/default/about/NewzTrader'
tp5002
aasbasbasbasbasbasbasbag57
(g73
g59
NtRp5003
(dp5004
g62
(dp5005
sg71
g4860
sg64
(lp5006
g57
(g78
g59
NtRp5007
(dp5008
g62
(dp5009
sg71
g5003
sg64
(lp5010
g57
(g58
g59
NtRp5011
(dp5012
g62
(dp5013
g70
I2
ssg71
g5007
sg64
(lp5014
g57
(g66
g59
NtRp5015
(dp5016
g62
(dp5017
g70
I1
ssg71
Nsg64
(lp5018
g57
(g73
g59
NtRp5019
(dp5020
g62
(dp5021
sg71
g5015
sg64
(lp5022
g57
(g78
g59
NtRp5023
(dp5024
g62
(dp5025
sg71
g5019
sg64
(lp5026
g57
(g58
g59
NtRp5027
(dp5028
g62
(dp5029
g70
I1
ssg71
g5023
sg64
(lp5030
S'web2py.com'
p5031
asbasbasbag57
(g73
g59
NtRp5032
(dp5033
g62
(dp5034
sg71
g5015
sg64
(lp5035
g57
(g78
g59
NtRp5036
(dp5037
g62
(dp5038
sg71
g5032
sg64
(lp5039
g57
(g58
g59
NtRp5040
(dp5041
g62
(dp5042
g70
I1
ssg71
g5036
sg64
(lp5043
I00
asbasbasbag57
(g73
g59
NtRp5044
(dp5045
g62
(dp5046
sg71
g5015
sg64
(lp5047
g57
(g78
g59
NtRp5048
(dp5049
g62
(dp5050
sg71
g5044
sg64
(lp5051
g57
(g58
g59
NtRp5052
(dp5053
g62
(dp5054
g70
I1
ssg71
g5048
sg64
(lp5055
S'http://www.web2py.com'
p5056
asbasbasbag57
(g73
g59
NtRp5057
(dp5058
g62
(dp5059
sg71
g5015
sg64
(lp5060
g57
(g78
g59
NtRp5061
(dp5062
g62
(dp5063
sg71
g5057
sg64
(lp5064
g57
(g58
g59
NtRp5065
(dp5066
g62
(dp5067
g70
I1
ssg71
g5061
sg64
(lp5068
(lp5069
(g4746
(S't\x08\x00\x00\x00Download'
tRp5070
I00
S'http://www.web2py.com/examples/default/download'
p5071
tp5072
a(g4746
(S't\x07\x00\x00\x00Support'
tRp5073
I00
S'http://www.web2py.com/examples/default/support'
p5074
tp5075
a(g4746
(S't\x04\x00\x00\x00Demo'
tRp5076
I00
S'http://web2py.com/demo_admin'
p5077
tp5078
a(g4746
(S's\x0e\x00\x00\x00Quick Examples'
tRp5079
I00
S'http://web2py.com/examples/default/examples'
p5080
tp5081
a(g4746
(S't\x03\x00\x00\x00FAQ'
tRp5082
I00
S'http://web2py.com/AlterEgo'
p5083
tp5084
a(g4746
(S't\x06\x00\x00\x00Videos'
tRp5085
I00
S'http://www.web2py.com/examples/default/videos/'
p5086
tp5087
a(g4746
(S's\x11\x00\x00\x00Free Applications'
tRp5088
I00
S'http://web2py.com/appliances'
p5089
tp5090
a(g4746
(S't\x07\x00\x00\x00Plugins'
tRp5091
I00
S'http://web2py.com/plugins'
p5092
tp5093
a(g4746
(S't\x07\x00\x00\x00Layouts'
tRp5094
I00
S'http://web2py.com/layouts'
p5095
tp5096
a(g4746
(S't\x07\x00\x00\x00Recipes'
tRp5097
I00
S'http://web2pyslices.com/'
p5098
tp5099
a(g4746
(S't\x08\x00\x00\x00Semantic'
tRp5100
I00
S'http://web2py.com/semantic'
p5101
tp5102
aasbasbasbasbasbasbasbag57
(g73
g59
NtRp5103
(dp5104
g62
(dp5105
sg71
g4860
sg64
(lp5106
g57
(g78
g59
NtRp5107
(dp5108
g62
(dp5109
sg71
g5103
sg64
(lp5110
g57
(g58
g59
NtRp5111
(dp5112
g62
(dp5113
g70
I2
ssg71
g5107
sg64
(lp5114
g57
(g66
g59
NtRp5115
(dp5116
g62
(dp5117
g70
I1
ssg71
Nsg64
(lp5118
g57
(g73
g59
NtRp5119
(dp5120
g62
(dp5121
sg71
g5115
sg64
(lp5122
g57
(g78
g59
NtRp5123
(dp5124
g62
(dp5125
sg71
g5119
sg64
(lp5126
g57
(g58
g59
NtRp5127
(dp5128
g62
(dp5129
g70
I1
ssg71
g5123
sg64
(lp5130
g4746
(S't\r\x00\x00\x00Documentation'
tRp5131
asbasbasbag57
(g73
g59
NtRp5132
(dp5133
g62
(dp5134
sg71
g5115
sg64
(lp5135
g57
(g78
g59
NtRp5136
(dp5137
g62
(dp5138
sg71
g5132
sg64
(lp5139
g57
(g58
g59
NtRp5140
(dp5141
g62
(dp5142
g70
I1
ssg71
g5136
sg64
(lp5143
I00
asbasbasbag57
(g73
g59
NtRp5144
(dp5145
g62
(dp5146
sg71
g5115
sg64
(lp5147
g57
(g78
g59
NtRp5148
(dp5149
g62
(dp5150
sg71
g5144
sg64
(lp5151
g57
(g58
g59
NtRp5152
(dp5153
g62
(dp5154
g70
I1
ssg71
g5148
sg64
(lp5155
S'http://www.web2py.com/book'
p5156
asbasbasbag57
(g73
g59
NtRp5157
(dp5158
g62
(dp5159
sg71
g5115
sg64
(lp5160
g57
(g78
g59
NtRp5161
(dp5162
g62
(dp5163
sg71
g5157
sg64
(lp5164
g57
(g58
g59
NtRp5165
(dp5166
g62
(dp5167
g70
I1
ssg71
g5161
sg64
(lp5168
(lp5169
(g4746
(S't\x07\x00\x00\x00Preface'
tRp5170
I00
S'http://www.web2py.com/book/default/chapter/00'
p5171
tp5172
a(g4746
(S't\x0c\x00\x00\x00Introduction'
tRp5173
I00
S'http://www.web2py.com/book/default/chapter/01'
p5174
tp5175
a(g4746
(S't\x06\x00\x00\x00Python'
tRp5176
I00
S'http://www.web2py.com/book/default/chapter/02'
p5177
tp5178
a(g4746
(S't\x08\x00\x00\x00Overview'
tRp5179
I00
S'http://www.web2py.com/book/default/chapter/03'
p5180
tp5181
a(g4746
(S's\x08\x00\x00\x00The Core'
tRp5182
I00
S'http://www.web2py.com/book/default/chapter/04'
p5183
tp5184
a(g4746
(S's\t\x00\x00\x00The Views'
tRp5185
I00
S'http://www.web2py.com/book/default/chapter/05'
p5186
tp5187
a(g4746
(S't\x08\x00\x00\x00Database'
tRp5188
I00
S'http://www.web2py.com/book/default/chapter/06'
p5189
tp5190
a(g4746
(S's\x14\x00\x00\x00Forms and Validators'
tRp5191
I00
S'http://www.web2py.com/book/default/chapter/07'
p5192
tp5193
a(g4746
(S's\r\x00\x00\x00Email and SMS'
tRp5194
I00
S'http://www.web2py.com/book/default/chapter/08'
p5195
tp5196
a(g4746
(S's\x0e\x00\x00\x00Access Control'
tRp5197
I00
S'http://www.web2py.com/book/default/chapter/09'
p5198
tp5199
a(g4746
(S't\x08\x00\x00\x00Services'
tRp5200
I00
S'http://www.web2py.com/book/default/chapter/10'
p5201
tp5202
a(g4746
(S's\x0c\x00\x00\x00Ajax Recipes'
tRp5203
I00
S'http://www.web2py.com/book/default/chapter/11'
p5204
tp5205
a(g4746
(S's\x16\x00\x00\x00Components and Plugins'
tRp5206
I00
S'http://www.web2py.com/book/default/chapter/12'
p5207
tp5208
a(g4746
(S's\x12\x00\x00\x00Deployment Recipes'
tRp5209
I00
S'http://www.web2py.com/book/default/chapter/13'
p5210
tp5211
a(g4746
(S's\r\x00\x00\x00Other Recipes'
tRp5212
I00
S'http://www.web2py.com/book/default/chapter/14'
p5213
tp5214
a(g4746
(S's\r\x00\x00\x00Buy this book'
tRp5215
I00
S'http://stores.lulu.com/web2py'
p5216
tp5217
aasbasbasbasbasbasbasbag57
(g73
g59
NtRp5218
(dp5219
g62
(dp5220
sg71
g4860
sg64
(lp5221
g57
(g78
g59
NtRp5222
(dp5223
g62
(dp5224
sg71
g5218
sg64
(lp5225
g57
(g58
g59
NtRp5226
(dp5227
g62
(dp5228
g70
I2
ssg71
g5222
sg64
(lp5229
g57
(g66
g59
NtRp5230
(dp5231
g62
(dp5232
g70
I1
ssg71
Nsg64
(lp5233
g57
(g73
g59
NtRp5234
(dp5235
g62
(dp5236
sg71
g5230
sg64
(lp5237
g57
(g78
g59
NtRp5238
(dp5239
g62
(dp5240
sg71
g5234
sg64
(lp5241
g57
(g58
g59
NtRp5242
(dp5243
g62
(dp5244
g70
I1
ssg71
g5238
sg64
(lp5245
g4746
(S't\t\x00\x00\x00Community'
tRp5246
asbasbasbag57
(g73
g59
NtRp5247
(dp5248
g62
(dp5249
sg71
g5230
sg64
(lp5250
g57
(g78
g59
NtRp5251
(dp5252
g62
(dp5253
sg71
g5247
sg64
(lp5254
g57
(g58
g59
NtRp5255
(dp5256
g62
(dp5257
g70
I1
ssg71
g5251
sg64
(lp5258
I00
asbasbasbag57
(g73
g59
NtRp5259
(dp5260
g62
(dp5261
sg71
g5230
sg64
(lp5262
g57
(g78
g59
NtRp5263
(dp5264
g62
(dp5265
sg71
g5259
sg64
(lp5266
g57
(g58
g59
NtRp5267
(dp5268
g62
(dp5269
g70
I1
ssg71
g5263
sg64
(lp5270
Nasbasbasbag57
(g73
g59
NtRp5271
(dp5272
g62
(dp5273
sg71
g5230
sg64
(lp5274
g57
(g78
g59
NtRp5275
(dp5276
g62
(dp5277
sg71
g5271
sg64
(lp5278
g57
(g58
g59
NtRp5279
(dp5280
g62
(dp5281
g70
I1
ssg71
g5275
sg64
(lp5282
(lp5283
(g4746
(S't\x06\x00\x00\x00Groups'
tRp5284
I00
S'http://www.web2py.com/examples/default/usergroups'
p5285
tp5286
a(g4746
(S't\x07\x00\x00\x00Twitter'
tRp5287
I00
S'http://twitter.com/web2py'
p5288
tp5289
a(g4746
(S's\t\x00\x00\x00Live Chat'
tRp5290
I00
S'http://webchat.freenode.net/?channels=web2py'
p5291
tp5292
aasbasbasbasbasbasbasbag57
(g73
g59
NtRp5293
(dp5294
g62
(dp5295
sg71
g4860
sg64
(lp5296
g57
(g78
g59
NtRp5297
(dp5298
g62
(dp5299
sg71
g5293
sg64
(lp5300
g57
(g58
g59
NtRp5301
(dp5302
g62
(dp5303
g70
I2
ssg71
g5297
sg64
(lp5304
g57
(g66
g59
NtRp5305
(dp5306
g62
(dp5307
g70
I1
ssg71
Nsg64
(lp5308
g57
(g73
g59
NtRp5309
(dp5310
g62
(dp5311
sg71
g5305
sg64
(lp5312
g57
(g78
g59
NtRp5313
(dp5314
g62
(dp5315
sg71
g5309
sg64
(lp5316
g57
(g58
g59
NtRp5317
(dp5318
g62
(dp5319
g70
I1
ssg71
g5313
sg64
(lp5320
g4746
(S't\x07\x00\x00\x00Plugins'
tRp5321
asbasbasbag57
(g73
g59
NtRp5322
(dp5323
g62
(dp5324
sg71
g5305
sg64
(lp5325
g57
(g78
g59
NtRp5326
(dp5327
g62
(dp5328
sg71
g5322
sg64
(lp5329
g57
(g58
g59
NtRp5330
(dp5331
g62
(dp5332
g70
I1
ssg71
g5326
sg64
(lp5333
I00
asbasbasbag57
(g73
g59
NtRp5334
(dp5335
g62
(dp5336
sg71
g5305
sg64
(lp5337
g57
(g78
g59
NtRp5338
(dp5339
g62
(dp5340
sg71
g5334
sg64
(lp5341
g57
(g58
g59
NtRp5342
(dp5343
g62
(dp5344
g70
I1
ssg71
g5338
sg64
(lp5345
Nasbasbasbag57
(g73
g59
NtRp5346
(dp5347
g62
(dp5348
sg71
g5305
sg64
(lp5349
g57
(g78
g59
NtRp5350
(dp5351
g62
(dp5352
sg71
g5346
sg64
(lp5353
g57
(g58
g59
NtRp5354
(dp5355
g62
(dp5356
g70
I1
ssg71
g5350
sg64
(lp5357
(lp5358
(S'plugin_wiki'
p5359
I00
S'http://web2py.com/examples/default/download'
p5360
tp5361
a(g4746
(S's\r\x00\x00\x00Other Plugins'
tRp5362
I00
g5092
tp5363
a(g4746
(S's\x0e\x00\x00\x00Layout Plugins'
tRp5364
I00
g5095
tp5365
aasbasbasbasbasbasbasbasbasbasbasbasbasbasbasbasbasbasbasbag57
(g73
g59
NtRp5366
(dp5367
g62
(dp5368
sg71
g4190
sg64
(lp5369
g57
(g78
g59
NtRp5370
(dp5371
g62
(dp5372
g82
g83
ssg71
g5366
sg64
(lp5373
S'meta'
p5374
asbag57
(g78
g59
NtRp5375
(dp5376
g62
(dp5377
g89
g90
ssg71
g5366
sg64
(lp5378
S':'
asbag57
(g78
g59
NtRp5379
(dp5380
g62
(dp5381
sg71
g5366
sg64
(lp5382
g57
(g58
g59
NtRp5383
(dp5384
g62
(dp5385
g70
I5
ssg71
g5379
sg64
(lp5386
g57
(g66
g59
NtRp5387
(dp5388
g62
(dp5389
g70
I4
ssg71
Nsg64
(lp5390
g57
(g73
g59
NtRp5391
(dp5392
g62
(dp5393
sg71
g5387
sg64
(lp5394
g57
(g78
g59
NtRp5395
(dp5396
g62
(dp5397
g82
g83
ssg71
g5391
sg64
(lp5398
S'author'
p5399
asbag57
(g78
g59
NtRp5400
(dp5401
g62
(dp5402
g89
g90
ssg71
g5391
sg64
(lp5403
S':'
asbag57
(g78
g59
NtRp5404
(dp5405
g62
(dp5406
sg71
g5391
sg64
(lp5407
g57
(g58
g59
NtRp5408
(dp5409
g62
(dp5410
g70
I4
ssg71
g5404
sg64
(lp5411
S'William Lyon <lyonwj@gmail.cmo>'
p5412
asbasbasbag57
(g73
g59
NtRp5413
(dp5414
g62
(dp5415
sg71
g5387
sg64
(lp5416
g57
(g78
g59
NtRp5417
(dp5418
g62
(dp5419
g82
g83
ssg71
g5413
sg64
(lp5420
S'copyright'
p5421
asbag57
(g78
g59
NtRp5422
(dp5423
g62
(dp5424
g89
g90
ssg71
g5413
sg64
(lp5425
S':'
asbag57
(g78
g59
NtRp5426
(dp5427
g62
(dp5428
sg71
g5413
sg64
(lp5429
g57
(g58
g59
NtRp5430
(dp5431
g62
(dp5432
g70
I4
ssg71
g5426
sg64
(lp5433
S'Copyright William Lyon 2012'
p5434
asbasbasbag57
(g73
g59
NtRp5435
(dp5436
g62
(dp5437
sg71
g5387
sg64
(lp5438
g57
(g78
g59
NtRp5439
(dp5440
g62
(dp5441
g82
g83
ssg71
g5435
sg64
(lp5442
S'description'
p5443
asbag57
(g78
g59
NtRp5444
(dp5445
g62
(dp5446
g89
g90
ssg71
g5435
sg64
(lp5447
S':'
asbag57
(g78
g59
NtRp5448
(dp5449
g62
(dp5450
sg71
g5435
sg64
(lp5451
g57
(g58
g59
NtRp5452
(dp5453
g62
(dp5454
g70
I4
ssg71
g5448
sg64
(lp5455
S'Autonomous Trading Agent Using Natural Language Processing Of News Headlines'
p5456
asbasbasbag57
(g73
g59
NtRp5457
(dp5458
g62
(dp5459
sg71
g5387
sg64
(lp5460
g57
(g78
g59
NtRp5461
(dp5462
g62
(dp5463
g82
g83
ssg71
g5457
sg64
(lp5464
S'generator'
p5465
asbag57
(g78
g59
NtRp5466
(dp5467
g62
(dp5468
g89
g90
ssg71
g5457
sg64
(lp5469
S':'
asbag57
(g78
g59
NtRp5470
(dp5471
g62
(dp5472
sg71
g5457
sg64
(lp5473
g57
(g58
g59
NtRp5474
(dp5475
g62
(dp5476
g70
I4
ssg71
g5470
sg64
(lp5477
S'Web2py Web Framework'
p5478
asbasbasbag57
(g73
g59
NtRp5479
(dp5480
g62
(dp5481
sg71
g5387
sg64
(lp5482
g57
(g78
g59
NtRp5483
(dp5484
g62
(dp5485
g82
g83
ssg71
g5479
sg64
(lp5486
S'keywords'
p5487
asbag57
(g78
g59
NtRp5488
(dp5489
g62
(dp5490
g89
g90
ssg71
g5479
sg64
(lp5491
S':'
asbag57
(g78
g59
NtRp5492
(dp5493
g62
(dp5494
sg71
g5479
sg64
(lp5495
g57
(g58
g59
NtRp5496
(dp5497
g62
(dp5498
g70
I4
ssg71
g5492
sg64
(lp5499
S'python, AI, natural language processing'
p5500
asbasbasbasbasbasbasbag57
(g73
g59
NtRp5501
(dp5502
g62
(dp5503
sg71
g4190
sg64
(lp5504
g57
(g78
g59
NtRp5505
(dp5506
g62
(dp5507
g82
g83
ssg71
g5501
sg64
(lp5508
S'postprocessing'
p5509
asbag57
(g78
g59
NtRp5510
(dp5511
g62
(dp5512
g89
g90
ssg71
g5501
sg64
(lp5513
S':'
asbag57
(g78
g59
NtRp5514
(dp5515
g62
(dp5516
sg71
g5501
sg64
(lp5517
g57
(g58
g59
NtRp5518
(dp5519
g62
(dp5520
g70
I5
ssg71
g5514
sg64
(lp5521
g57
(g66
g59
NtRp5522
(dp5523
g62
(dp5524
g70
I4
ssg71
Nsg64
(lp5525
sbasbasbasbag57
(g73
g59
NtRp5526
(dp5527
g62
(dp5528
sg71
g4190
sg64
(lp5529
g57
(g78
g59
NtRp5530
(dp5531
g62
(dp5532
g82
g83
ssg71
g5526
sg64
(lp5533
S'session_file'
p5534
asbag57
(g78
g59
NtRp5535
(dp5536
g62
(dp5537
g89
g90
ssg71
g5526
sg64
(lp5538
S':'
asbag57
(g78
g59
NtRp5539
(dp5540
g62
(dp5541
sg71
g5526
sg64
(lp5542
g57
(g58
g59
NtRp5543
(dp5544
g62
(dp5545
g70
I5
ssg71
g5539
sg64
(lp5546
S"<open file '/home/lyonwj/webapps/web2py/web2py/applications/NewzTrader/sessions/150.131.118.156-b3c924a2-4514-44dd-83e7-d6a94defa956', mode 'rb+' at 0x7fea35151270>"
p5547
asbasbasbag57
(g73
g59
NtRp5548
(dp5549
g62
(dp5550
sg71
g4190
sg64
(lp5551
g57
(g78
g59
NtRp5552
(dp5553
g62
(dp5554
g82
g83
ssg71
g5548
sg64
(lp5555
S'session_filename'
p5556
asbag57
(g78
g59
NtRp5557
(dp5558
g62
(dp5559
g89
g90
ssg71
g5548
sg64
(lp5560
S':'
asbag57
(g78
g59
NtRp5561
(dp5562
g62
(dp5563
sg71
g5548
sg64
(lp5564
g57
(g58
g59
NtRp5565
(dp5566
g62
(dp5567
g70
I5
ssg71
g5561
sg64
(lp5568
S'/home/lyonwj/webapps/web2py/web2py/applications/NewzTrader/sessions/150.131.118.156-b3c924a2-4514-44dd-83e7-d6a94defa956'
p5569
asbasbasbag57
(g73
g59
NtRp5570
(dp5571
g62
(dp5572
sg71
g4190
sg64
(lp5573
g57
(g78
g59
NtRp5574
(dp5575
g62
(dp5576
g82
g83
ssg71
g5570
sg64
(lp5577
S'session_id'
p5578
asbag57
(g78
g59
NtRp5579
(dp5580
g62
(dp5581
g89
g90
ssg71
g5570
sg64
(lp5582
S':'
asbag57
(g78
g59
NtRp5583
(dp5584
g62
(dp5585
sg71
g5570
sg64
(lp5586
g57
(g58
g59
NtRp5587
(dp5588
g62
(dp5589
g70
I5
ssg71
g5583
sg64
(lp5590
S'150.131.118.156-b3c924a2-4514-44dd-83e7-d6a94defa956'
p5591
asbasbasbag57
(g73
g59
NtRp5592
(dp5593
g62
(dp5594
sg71
g4190
sg64
(lp5595
g57
(g78
g59
NtRp5596
(dp5597
g62
(dp5598
g82
g83
ssg71
g5592
sg64
(lp5599
S'session_id_name'
p5600
asbag57
(g78
g59
NtRp5601
(dp5602
g62
(dp5603
g89
g90
ssg71
g5592
sg64
(lp5604
S':'
asbag57
(g78
g59
NtRp5605
(dp5606
g62
(dp5607
sg71
g5592
sg64
(lp5608
g57
(g58
g59
NtRp5609
(dp5610
g62
(dp5611
g70
I5
ssg71
g5605
sg64
(lp5612
g4247
asbasbasbag57
(g73
g59
NtRp5613
(dp5614
g62
(dp5615
sg71
g4190
sg64
(lp5616
g57
(g78
g59
NtRp5617
(dp5618
g62
(dp5619
g82
g83
ssg71
g5613
sg64
(lp5620
S'session_locked'
p5621
asbag57
(g78
g59
NtRp5622
(dp5623
g62
(dp5624
g89
g90
ssg71
g5613
sg64
(lp5625
S':'
asbag57
(g78
g59
NtRp5626
(dp5627
g62
(dp5628
sg71
g5613
sg64
(lp5629
g57
(g58
g59
NtRp5630
(dp5631
g62
(dp5632
g70
I5
ssg71
g5626
sg64
(lp5633
g2202
asbasbasbag57
(g73
g59
NtRp5634
(dp5635
g62
(dp5636
sg71
g4190
sg64
(lp5637
g57
(g78
g59
NtRp5638
(dp5639
g62
(dp5640
g82
g83
ssg71
g5634
sg64
(lp5641
S'session_new'
p5642
asbag57
(g78
g59
NtRp5643
(dp5644
g62
(dp5645
g89
g90
ssg71
g5634
sg64
(lp5646
S':'
asbag57
(g78
g59
NtRp5647
(dp5648
g62
(dp5649
sg71
g5634
sg64
(lp5650
g57
(g58
g59
NtRp5651
(dp5652
g62
(dp5653
g70
I5
ssg71
g5647
sg64
(lp5654
g100
asbasbasbag57
(g73
g59
NtRp5655
(dp5656
g62
(dp5657
sg71
g4190
sg64
(lp5658
g57
(g78
g59
NtRp5659
(dp5660
g62
(dp5661
g82
g83
ssg71
g5655
sg64
(lp5662
S'status'
p5663
asbag57
(g78
g59
NtRp5664
(dp5665
g62
(dp5666
g89
g90
ssg71
g5655
sg64
(lp5667
S':'
asbag57
(g78
g59
NtRp5668
(dp5669
g62
(dp5670
sg71
g5655
sg64
(lp5671
g57
(g58
g59
NtRp5672
(dp5673
g62
(dp5674
g70
I5
ssg71
g5668
sg64
(lp5675
S'200'
p5676
asbasbasbag57
(g73
g59
NtRp5677
(dp5678
g62
(dp5679
sg71
g4190
sg64
(lp5680
g57
(g78
g59
NtRp5681
(dp5682
g62
(dp5683
g82
g83
ssg71
g5677
sg64
(lp5684
S'subtitle'
p5685
asbag57
(g78
g59
NtRp5686
(dp5687
g62
(dp5688
g89
g90
ssg71
g5677
sg64
(lp5689
S':'
asbag57
(g78
g59
NtRp5690
(dp5691
g62
(dp5692
sg71
g5677
sg64
(lp5693
g57
(g58
g59
NtRp5694
(dp5695
g62
(dp5696
g70
I5
ssg71
g5690
sg64
(lp5697
g4746
(S'sL\x00\x00\x00Autonomous Trading Agent Using Natural Language Processing Of News Headlines'
tRp5698
asbasbasbag57
(g73
g59
NtRp5699
(dp5700
g62
(dp5701
sg71
g4190
sg64
(lp5702
g57
(g78
g59
NtRp5703
(dp5704
g62
(dp5705
g82
g83
ssg71
g5699
sg64
(lp5706
S'title'
p5707
asbag57
(g78
g59
NtRp5708
(dp5709
g62
(dp5710
g89
g90
ssg71
g5699
sg64
(lp5711
S':'
asbag57
(g78
g59
NtRp5712
(dp5713
g62
(dp5714
sg71
g5699
sg64
(lp5715
g57
(g58
g59
NtRp5716
(dp5717
g62
(dp5718
g70
I5
ssg71
g5712
sg64
(lp5719
S'NewzTrader'
p5720
asbasbasbag57
(g73
g59
NtRp5721
(dp5722
g62
(dp5723
sg71
g4190
sg64
(lp5724
g57
(g78
g59
NtRp5725
(dp5726
g62
(dp5727
g82
g83
ssg71
g5721
sg64
(lp5728
g2822
asbag57
(g78
g59
NtRp5729
(dp5730
g62
(dp5731
g89
g90
ssg71
g5721
sg64
(lp5732
S':'
asbag57
(g78
g59
NtRp5733
(dp5734
g62
(dp5735
sg71
g5721
sg64
(lp5736
g57
(g58
g59
NtRp5737
(dp5738
g62
(dp5739
g70
I5
ssg71
g5733
sg64
(lp5740
g2835
asbasbasbag57
(g73
g59
NtRp5741
(dp5742
g62
(dp5743
sg71
g4190
sg64
(lp5744
g57
(g78
g59
NtRp5745
(dp5746
g62
(dp5747
g82
g83
ssg71
g5741
sg64
(lp5748
S'view'
p5749
asbag57
(g78
g59
NtRp5750
(dp5751
g62
(dp5752
g89
g90
ssg71
g5741
sg64
(lp5753
S':'
asbag57
(g78
g59
NtRp5754
(dp5755
g62
(dp5756
sg71
g5741
sg64
(lp5757
g57
(g58
g59
NtRp5758
(dp5759
g62
(dp5760
g70
I5
ssg71
g5754
sg64
(lp5761
S'default/index.html'
p5762
asbasbasbasbasbsS'locals'
p5763
(dp5764
S'fp'
p5765
S"'/home/lyonwj/webapps/web2py/web2py/applications/NewzTrader/private/classifier.pkl'"
p5766
sS'pkl_file'
p5767
S"<open file '/home/lyonwj/webapps/web2py/web2py/a...ns/NewzTrader/private/classifier.pkl', mode 'rb'>"
p5768
sssS'traceback'
p5769
S'Traceback (most recent call last):\n  File "/home/lyonwj/webapps/web2py/web2py/gluon/restricted.py", line 205, in restricted\n    exec ccode in environment\n  File "/home/lyonwj/webapps/web2py/web2py/applications/NewzTrader/controllers/default.py", line 135, in <module>\n  File "/home/lyonwj/webapps/web2py/web2py/gluon/globals.py", line 173, in <lambda>\n    self._caller = lambda f: f()\n  File "/home/lyonwj/webapps/web2py/web2py/applications/NewzTrader/controllers/default.py", line 28, in index\n    nb_classifer = get_classifier()\n  File "/home/lyonwj/webapps/web2py/web2py/applications/NewzTrader/controllers/default.py", line 39, in get_classifier\n    classifier = pickle.load(pkl_file)\nNameError: global name \'pickle\' is not defined\n'
p5770
s.